SF:C:\Users\porge\OneDrive\Documents\mdf\gedcom\src\encodings.rs
FN:15,_RNvXNtCscmLdlanZRvV_6gedcom9encodingsNtB2_14GEDCOMEncodingNtNtCsalHcryTVEJB_4core3fmt7Display3fmt
FN:27,_RNvXs7_NtCscmLdlanZRvV_6gedcom9encodingsNtB5_24MissingRequiredSubrecordNtNtCsalHcryTVEJB_4core3fmt7Display3fmt
FN:27,_RNvXs8_NtCscmLdlanZRvV_6gedcom9encodingsNtB5_24MissingRequiredSubrecordNtNtCsiy8hXAumaA3_6miette8protocol10Diagnostic6labels
FN:27,_RNCNvXs8_NtCscmLdlanZRvV_6gedcom9encodingsNtB7_24MissingRequiredSubrecordNtNtCsiy8hXAumaA3_6miette8protocol10Diagnostic6labels0B9_
FN:42,_RNvXsa_NtCscmLdlanZRvV_6gedcom9encodingsNtB5_9DataErrorNtNtCsalHcryTVEJB_4core5error5Error6source
FN:42,_RNvXsb_NtCscmLdlanZRvV_6gedcom9encodingsNtB5_9DataErrorNtNtCsalHcryTVEJB_4core3fmt7Display3fmt
FN:42,_RNvXsc_NtCscmLdlanZRvV_6gedcom9encodingsNtB5_9DataErrorNtNtCsiy8hXAumaA3_6miette8protocol10Diagnostic4code
FN:42,_RNvXsc_NtCscmLdlanZRvV_6gedcom9encodingsNtB5_9DataErrorNtNtCsiy8hXAumaA3_6miette8protocol10Diagnostic6labels
FN:42,_RNCNvXsc_NtCscmLdlanZRvV_6gedcom9encodingsNtB7_9DataErrorNtNtCsiy8hXAumaA3_6miette8protocol10Diagnostic6labels0B9_
FN:42,_RNCNvXsc_NtCscmLdlanZRvV_6gedcom9encodingsNtB7_9DataErrorNtNtCsiy8hXAumaA3_6miette8protocol10Diagnostic6labelss_0B9_
FN:71,_RNvMs_NtCscmLdlanZRvV_6gedcom9encodingsNtB4_9DataError9to_static
FN:99,_RNvXsf_NtCscmLdlanZRvV_6gedcom9encodingsNtB5_21InvalidGEDCOMEncodingNtNtCsalHcryTVEJB_4core3fmt7Display3fmt
FN:103,_RNvNtCscmLdlanZRvV_6gedcom9encodings18parse_encoding_raw
FN:15,_RNvXNtCs94xiAUca6ke_6gedcom9encodingsNtB2_14GEDCOMEncodingNtNtCsalHcryTVEJB_4core3fmt7Display3fmt
FN:71,_RNvMs_NtCs94xiAUca6ke_6gedcom9encodingsNtB4_9DataError9to_static
FN:103,_RNvNtCs94xiAUca6ke_6gedcom9encodings18parse_encoding_raw
FN:27,_RNvXs7_NtCs94xiAUca6ke_6gedcom9encodingsNtB5_24MissingRequiredSubrecordNtNtCsalHcryTVEJB_4core3fmt7Display3fmt
FN:27,_RNvXs8_NtCs94xiAUca6ke_6gedcom9encodingsNtB5_24MissingRequiredSubrecordNtNtCsiy8hXAumaA3_6miette8protocol10Diagnostic6labels
FN:42,_RNvXsa_NtCs94xiAUca6ke_6gedcom9encodingsNtB5_9DataErrorNtNtCsalHcryTVEJB_4core5error5Error6source
FN:42,_RNvXsb_NtCs94xiAUca6ke_6gedcom9encodingsNtB5_9DataErrorNtNtCsalHcryTVEJB_4core3fmt7Display3fmt
FN:42,_RNvXsc_NtCs94xiAUca6ke_6gedcom9encodingsNtB5_9DataErrorNtNtCsiy8hXAumaA3_6miette8protocol10Diagnostic4code
FN:42,_RNvXsc_NtCs94xiAUca6ke_6gedcom9encodingsNtB5_9DataErrorNtNtCsiy8hXAumaA3_6miette8protocol10Diagnostic6labels
FN:99,_RNvXsf_NtCs94xiAUca6ke_6gedcom9encodingsNtB5_21InvalidGEDCOMEncodingNtNtCsalHcryTVEJB_4core3fmt7Display3fmt
FN:27,_RNCNvXs8_NtCs94xiAUca6ke_6gedcom9encodingsNtB7_24MissingRequiredSubrecordNtNtCsiy8hXAumaA3_6miette8protocol10Diagnostic6labels0B9_
FN:42,_RNCNvXsc_NtCs94xiAUca6ke_6gedcom9encodingsNtB7_9DataErrorNtNtCsiy8hXAumaA3_6miette8protocol10Diagnostic6labels0B9_
FN:42,_RNCNvXsc_NtCs94xiAUca6ke_6gedcom9encodingsNtB7_9DataErrorNtNtCsiy8hXAumaA3_6miette8protocol10Diagnostic6labelss_0B9_
FNDA:0,_RNvXNtCscmLdlanZRvV_6gedcom9encodingsNtB2_14GEDCOMEncodingNtNtCsalHcryTVEJB_4core3fmt7Display3fmt
FNDA:0,_RNvXs7_NtCscmLdlanZRvV_6gedcom9encodingsNtB5_24MissingRequiredSubrecordNtNtCsalHcryTVEJB_4core3fmt7Display3fmt
FNDA:0,_RNvXs8_NtCscmLdlanZRvV_6gedcom9encodingsNtB5_24MissingRequiredSubrecordNtNtCsiy8hXAumaA3_6miette8protocol10Diagnostic6labels
FNDA:0,_RNCNvXs8_NtCscmLdlanZRvV_6gedcom9encodingsNtB7_24MissingRequiredSubrecordNtNtCsiy8hXAumaA3_6miette8protocol10Diagnostic6labels0B9_
FNDA:0,_RNvXsa_NtCscmLdlanZRvV_6gedcom9encodingsNtB5_9DataErrorNtNtCsalHcryTVEJB_4core5error5Error6source
FNDA:0,_RNvXsb_NtCscmLdlanZRvV_6gedcom9encodingsNtB5_9DataErrorNtNtCsalHcryTVEJB_4core3fmt7Display3fmt
FNDA:0,_RNvXsc_NtCscmLdlanZRvV_6gedcom9encodingsNtB5_9DataErrorNtNtCsiy8hXAumaA3_6miette8protocol10Diagnostic4code
FNDA:0,_RNvXsc_NtCscmLdlanZRvV_6gedcom9encodingsNtB5_9DataErrorNtNtCsiy8hXAumaA3_6miette8protocol10Diagnostic6labels
FNDA:0,_RNCNvXsc_NtCscmLdlanZRvV_6gedcom9encodingsNtB7_9DataErrorNtNtCsiy8hXAumaA3_6miette8protocol10Diagnostic6labels0B9_
FNDA:0,_RNCNvXsc_NtCscmLdlanZRvV_6gedcom9encodingsNtB7_9DataErrorNtNtCsiy8hXAumaA3_6miette8protocol10Diagnostic6labelss_0B9_
FNDA:0,_RNvMs_NtCscmLdlanZRvV_6gedcom9encodingsNtB4_9DataError9to_static
FNDA:0,_RNvXsf_NtCscmLdlanZRvV_6gedcom9encodingsNtB5_21InvalidGEDCOMEncodingNtNtCsalHcryTVEJB_4core3fmt7Display3fmt
FNDA:0,_RNvNtCscmLdlanZRvV_6gedcom9encodings18parse_encoding_raw
FNDA:0,_RNvXNtCs94xiAUca6ke_6gedcom9encodingsNtB2_14GEDCOMEncodingNtNtCsalHcryTVEJB_4core3fmt7Display3fmt
FNDA:0,_RNvMs_NtCs94xiAUca6ke_6gedcom9encodingsNtB4_9DataError9to_static
FNDA:23,_RNvNtCs94xiAUca6ke_6gedcom9encodings18parse_encoding_raw
FNDA:0,_RNvXs7_NtCs94xiAUca6ke_6gedcom9encodingsNtB5_24MissingRequiredSubrecordNtNtCsalHcryTVEJB_4core3fmt7Display3fmt
FNDA:0,_RNvXs8_NtCs94xiAUca6ke_6gedcom9encodingsNtB5_24MissingRequiredSubrecordNtNtCsiy8hXAumaA3_6miette8protocol10Diagnostic6labels
FNDA:0,_RNvXsa_NtCs94xiAUca6ke_6gedcom9encodingsNtB5_9DataErrorNtNtCsalHcryTVEJB_4core5error5Error6source
FNDA:0,_RNvXsb_NtCs94xiAUca6ke_6gedcom9encodingsNtB5_9DataErrorNtNtCsalHcryTVEJB_4core3fmt7Display3fmt
FNDA:0,_RNvXsc_NtCs94xiAUca6ke_6gedcom9encodingsNtB5_9DataErrorNtNtCsiy8hXAumaA3_6miette8protocol10Diagnostic4code
FNDA:0,_RNvXsc_NtCs94xiAUca6ke_6gedcom9encodingsNtB5_9DataErrorNtNtCsiy8hXAumaA3_6miette8protocol10Diagnostic6labels
FNDA:0,_RNvXsf_NtCs94xiAUca6ke_6gedcom9encodingsNtB5_21InvalidGEDCOMEncodingNtNtCsalHcryTVEJB_4core3fmt7Display3fmt
FNDA:0,_RNCNvXs8_NtCs94xiAUca6ke_6gedcom9encodingsNtB7_24MissingRequiredSubrecordNtNtCsiy8hXAumaA3_6miette8protocol10Diagnostic6labels0B9_
FNDA:0,_RNCNvXsc_NtCs94xiAUca6ke_6gedcom9encodingsNtB7_9DataErrorNtNtCsiy8hXAumaA3_6miette8protocol10Diagnostic6labels0B9_
FNDA:0,_RNCNvXsc_NtCs94xiAUca6ke_6gedcom9encodingsNtB7_9DataErrorNtNtCsiy8hXAumaA3_6miette8protocol10Diagnostic6labelss_0B9_
FNF:8
FNH:1
DA:15,0
DA:16,0
DA:17,0
DA:18,0
DA:19,0
DA:20,0
DA:23,0
DA:24,0
DA:27,0
DA:42,0
DA:71,0
DA:72,0
DA:74,0
DA:75,0
DA:76,0
DA:77,0
DA:78,0
DA:79,0
DA:80,0
DA:81,0
DA:82,0
DA:83,0
DA:84,0
DA:85,0
DA:87,0
DA:88,0
DA:89,0
DA:90,0
DA:91,0
DA:92,0
DA:93,0
DA:94,0
DA:96,0
DA:99,0
DA:103,23
DA:104,23
DA:105,23
DA:106,5
DA:107,2
DA:108,4
DA:109,2
DA:111,23
BRF:0
BRH:0
LF:44
LH:8
end_of_record
SF:C:\Users\porge\OneDrive\Documents\mdf\gedcom\src\highlighting.rs
FN:6,_RNvXNtCscmLdlanZRvV_6gedcom12highlightingNtB2_17GEDCOMHighlighterNtNtCsiy8hXAumaA3_6miette12highlighters11Highlighter23start_highlighter_state
FN:17,_RNvXs_NtCscmLdlanZRvV_6gedcom12highlightingNtB4_22GEDCOMHighlighterStateNtNtCsiy8hXAumaA3_6miette12highlighters16HighlighterState14highlight_line
FN:25,_RNCNvXs_NtCscmLdlanZRvV_6gedcom12highlightingNtB6_22GEDCOMHighlighterStateNtNtCsiy8hXAumaA3_6miette12highlighters16HighlighterState14highlight_line0B8_
FN:27,_RNCNvXs_NtCscmLdlanZRvV_6gedcom12highlightingNtB6_22GEDCOMHighlighterStateNtNtCsiy8hXAumaA3_6miette12highlighters16HighlighterState14highlight_lines_0B8_
FN:28,_RNCNCNvXs_NtCscmLdlanZRvV_6gedcom12highlightingNtB8_22GEDCOMHighlighterStateNtNtCsiy8hXAumaA3_6miette12highlighters16HighlighterState14highlight_lines_00Ba_
FN:25,_RNCNvXs_NtCs94xiAUca6ke_6gedcom12highlightingNtB6_22GEDCOMHighlighterStateNtNtCsiy8hXAumaA3_6miette12highlighters16HighlighterState14highlight_line0B8_
FN:27,_RNCNvXs_NtCs94xiAUca6ke_6gedcom12highlightingNtB6_22GEDCOMHighlighterStateNtNtCsiy8hXAumaA3_6miette12highlighters16HighlighterState14highlight_lines_0B8_
FN:28,_RNCNCNvXs_NtCs94xiAUca6ke_6gedcom12highlightingNtB8_22GEDCOMHighlighterStateNtNtCsiy8hXAumaA3_6miette12highlighters16HighlighterState14highlight_lines_00Ba_
FNDA:0,_RNvXNtCscmLdlanZRvV_6gedcom12highlightingNtB2_17GEDCOMHighlighterNtNtCsiy8hXAumaA3_6miette12highlighters11Highlighter23start_highlighter_state
FNDA:0,_RNvXs_NtCscmLdlanZRvV_6gedcom12highlightingNtB4_22GEDCOMHighlighterStateNtNtCsiy8hXAumaA3_6miette12highlighters16HighlighterState14highlight_line
FNDA:0,_RNCNvXs_NtCscmLdlanZRvV_6gedcom12highlightingNtB6_22GEDCOMHighlighterStateNtNtCsiy8hXAumaA3_6miette12highlighters16HighlighterState14highlight_line0B8_
FNDA:0,_RNCNvXs_NtCscmLdlanZRvV_6gedcom12highlightingNtB6_22GEDCOMHighlighterStateNtNtCsiy8hXAumaA3_6miette12highlighters16HighlighterState14highlight_lines_0B8_
FNDA:0,_RNCNCNvXs_NtCscmLdlanZRvV_6gedcom12highlightingNtB8_22GEDCOMHighlighterStateNtNtCsiy8hXAumaA3_6miette12highlighters16HighlighterState14highlight_lines_00Ba_
FNDA:0,_RNCNvXs_NtCs94xiAUca6ke_6gedcom12highlightingNtB6_22GEDCOMHighlighterStateNtNtCsiy8hXAumaA3_6miette12highlighters16HighlighterState14highlight_line0B8_
FNDA:0,_RNCNvXs_NtCs94xiAUca6ke_6gedcom12highlightingNtB6_22GEDCOMHighlighterStateNtNtCsiy8hXAumaA3_6miette12highlighters16HighlighterState14highlight_lines_0B8_
FNDA:0,_RNCNCNvXs_NtCs94xiAUca6ke_6gedcom12highlightingNtB8_22GEDCOMHighlighterStateNtNtCsiy8hXAumaA3_6miette12highlighters16HighlighterState14highlight_lines_00Ba_
FNF:5
FNH:0
DA:6,0
DA:7,0
DA:8,0
DA:9,0
DA:10,0
DA:11,0
DA:17,0
DA:18,0
DA:19,0
DA:20,0
DA:21,0
DA:22,0
DA:23,0
DA:24,0
DA:25,0
DA:27,0
DA:28,0
DA:29,0
DA:31,0
DA:33,0
DA:35,0
DA:36,0
DA:37,0
DA:38,0
DA:39,0
DA:41,0
DA:42,0
DA:43,0
DA:44,0
DA:45,0
DA:46,0
DA:47,0
DA:48,0
DA:49,0
DA:52,0
DA:53,0
DA:54,0
DA:55,0
DA:56,0
DA:57,0
DA:58,0
DA:62,0
DA:63,0
DA:64,0
DA:65,0
DA:66,0
DA:67,0
DA:68,0
DA:70,0
DA:72,0
DA:75,0
DA:79,0
DA:81,0
BRF:0
BRH:0
LF:56
LH:0
end_of_record
SF:C:\Users\porge\OneDrive\Documents\mdf\gedcom\src\lib.rs
FN:17,_RNvXsl_CscmLdlanZRvV_6gedcomNtB5_11GedcomErrorNtNtCsalHcryTVEJB_4core5error5Error6source
FN:17,_RNvXsm_CscmLdlanZRvV_6gedcomNtB5_11GedcomErrorNtNtCsalHcryTVEJB_4core3fmt7Display3fmt
FN:17,_RNvXsn_CscmLdlanZRvV_6gedcomNtB5_11GedcomErrorINtNtCsalHcryTVEJB_4core7convert4FromNtB5_15LineSyntaxErrorE4from
FN:17,_RNvXso_CscmLdlanZRvV_6gedcomNtB5_11GedcomErrorINtNtCsalHcryTVEJB_4core7convert4FromNtB5_18LineStructureErrorE4from
FN:17,_RNvXsp_CscmLdlanZRvV_6gedcomNtB5_11GedcomErrorINtNtCsalHcryTVEJB_4core7convert4FromNtB5_11SchemaErrorE4from
FN:17,_RNvXsr_CscmLdlanZRvV_6gedcomNtB5_11GedcomErrorNtNtCsiy8hXAumaA3_6miette8protocol10Diagnostic4code
FN:17,_RNvXsr_CscmLdlanZRvV_6gedcomNtB5_11GedcomErrorNtNtCsiy8hXAumaA3_6miette8protocol10Diagnostic4help
FN:17,_RNvXsr_CscmLdlanZRvV_6gedcomNtB5_11GedcomErrorNtNtCsiy8hXAumaA3_6miette8protocol10Diagnostic8severity
FN:17,_RNvXsr_CscmLdlanZRvV_6gedcomNtB5_11GedcomErrorNtNtCsiy8hXAumaA3_6miette8protocol10Diagnostic6labels
FN:17,_RNvXsr_CscmLdlanZRvV_6gedcomNtB5_11GedcomErrorNtNtCsiy8hXAumaA3_6miette8protocol10Diagnostic11source_code
FN:17,_RNvXsr_CscmLdlanZRvV_6gedcomNtB5_11GedcomErrorNtNtCsiy8hXAumaA3_6miette8protocol10Diagnostic7related
FN:17,_RNvXsr_CscmLdlanZRvV_6gedcomNtB5_11GedcomErrorNtNtCsiy8hXAumaA3_6miette8protocol10Diagnostic3url
FN:17,_RNvXsr_CscmLdlanZRvV_6gedcomNtB5_11GedcomErrorNtNtCsiy8hXAumaA3_6miette8protocol10Diagnostic17diagnostic_source
FN:32,_RNvXst_CscmLdlanZRvV_6gedcomNtB5_15ValidationErrorNtNtCsalHcryTVEJB_4core3fmt7Display3fmt
FN:32,_RNvXsv_CscmLdlanZRvV_6gedcomNtB5_15ValidationErrorNtNtCsiy8hXAumaA3_6miette8protocol10Diagnostic7related
FN:32,_RNCNvXsv_CscmLdlanZRvV_6gedcomNtB7_15ValidationErrorNtNtCsiy8hXAumaA3_6miette8protocol10Diagnostic7related0B7_
FN:42,_RNvXCscmLdlanZRvV_6gedcomNtB2_11GedcomErrorINtNtCsalHcryTVEJB_4core7convert4FromNtBI_10InfallibleE4from
FN:47,_RNvXsw_CscmLdlanZRvV_6gedcomNtB5_15LineSyntaxErrorNtNtCsalHcryTVEJB_4core5error5Error6source
FN:47,_RNvXsx_CscmLdlanZRvV_6gedcomNtB5_15LineSyntaxErrorNtNtCsalHcryTVEJB_4core3fmt7Display3fmt
FN:47,_RNvXsz_CscmLdlanZRvV_6gedcomNtB5_15LineSyntaxErrorNtNtCsiy8hXAumaA3_6miette8protocol10Diagnostic4code
FN:47,_RNvXsz_CscmLdlanZRvV_6gedcomNtB5_15LineSyntaxErrorNtNtCsiy8hXAumaA3_6miette8protocol10Diagnostic4help
FN:47,_RNvXsz_CscmLdlanZRvV_6gedcomNtB5_15LineSyntaxErrorNtNtCsiy8hXAumaA3_6miette8protocol10Diagnostic6labels
FN:47,_RNCNvXsz_CscmLdlanZRvV_6gedcomNtB7_15LineSyntaxErrorNtNtCsiy8hXAumaA3_6miette8protocol10Diagnostic6labels0B7_
FN:47,_RNCNvXsz_CscmLdlanZRvV_6gedcomNtB7_15LineSyntaxErrorNtNtCsiy8hXAumaA3_6miette8protocol10Diagnostic6labelss_0B7_
FN:47,_RNCNvXsz_CscmLdlanZRvV_6gedcomNtB7_15LineSyntaxErrorNtNtCsiy8hXAumaA3_6miette8protocol10Diagnostic6labelss0_0B7_
FN:47,_RNCNvXsz_CscmLdlanZRvV_6gedcomNtB7_15LineSyntaxErrorNtNtCsiy8hXAumaA3_6miette8protocol10Diagnostic6labelss1_0B7_
FN:91,_RNvXsB_CscmLdlanZRvV_6gedcomNtB5_18LineStructureErrorNtNtCsalHcryTVEJB_4core3fmt7Display3fmt
FN:91,_RNvXsD_CscmLdlanZRvV_6gedcomNtB5_18LineStructureErrorNtNtCsiy8hXAumaA3_6miette8protocol10Diagnostic4code
FN:91,_RNvXsD_CscmLdlanZRvV_6gedcomNtB5_18LineStructureErrorNtNtCsiy8hXAumaA3_6miette8protocol10Diagnostic6labels
FN:91,_RNCNvXsD_CscmLdlanZRvV_6gedcomNtB7_18LineStructureErrorNtNtCsiy8hXAumaA3_6miette8protocol10Diagnostic6labels0B7_
FN:160,_RNvXs_CscmLdlanZRvV_6gedcomNtB4_17SupportedEncodingNtNtCsalHcryTVEJB_4core3fmt7Display3fmt
FN:180,_RNvMs0_CscmLdlanZRvV_6gedcomNtB5_16DetectedEncoding6decode
FN:192,_RNCNvMs0_CscmLdlanZRvV_6gedcomNtB7_16DetectedEncoding6decode0B7_
FN:204,_RNCNvMs0_CscmLdlanZRvV_6gedcomNtB7_16DetectedEncoding6decodes_0B7_
FN:212,_RNCNvMs0_CscmLdlanZRvV_6gedcomNtB7_16DetectedEncoding6decodes0_0B7_
FN:252,_RNvXsM_CscmLdlanZRvV_6gedcomNtB5_8AnselErrNtNtCsalHcryTVEJB_4core3fmt7Display3fmt
FN:265,_RNvMs1_CscmLdlanZRvV_6gedcomNtB5_8AnselErr6offset
FN:274,_RNvCscmLdlanZRvV_6gedcom12decode_ansel
FN:438,_RNvXsR_CscmLdlanZRvV_6gedcomNtB5_14EncodingReasonNtNtCsalHcryTVEJB_4core3fmt7Display3fmt
FN:438,_RNvXsT_CscmLdlanZRvV_6gedcomNtB5_14EncodingReasonNtNtCsiy8hXAumaA3_6miette8protocol10Diagnostic4code
FN:438,_RNvXsT_CscmLdlanZRvV_6gedcomNtB5_14EncodingReasonNtNtCsiy8hXAumaA3_6miette8protocol10Diagnostic8severity
FN:438,_RNvXsT_CscmLdlanZRvV_6gedcomNtB5_14EncodingReasonNtNtCsiy8hXAumaA3_6miette8protocol10Diagnostic6labels
FN:438,_RNCNvXsT_CscmLdlanZRvV_6gedcomNtB7_14EncodingReasonNtNtCsiy8hXAumaA3_6miette8protocol10Diagnostic6labels0B7_
FN:438,_RNCNvXsT_CscmLdlanZRvV_6gedcomNtB7_14EncodingReasonNtNtCsiy8hXAumaA3_6miette8protocol10Diagnostic6labelss_0B7_
FN:469,_RNvXsW_CscmLdlanZRvV_6gedcomNtB5_13EncodingErrorNtNtCsalHcryTVEJB_4core5error5Error6source
FN:469,_RNvXsX_CscmLdlanZRvV_6gedcomNtB5_13EncodingErrorNtNtCsalHcryTVEJB_4core3fmt7Display3fmt
FN:469,_RNvXsZ_CscmLdlanZRvV_6gedcomNtB5_13EncodingErrorNtNtCsiy8hXAumaA3_6miette8protocol10Diagnostic4code
FN:469,_RNvXsZ_CscmLdlanZRvV_6gedcomNtB5_13EncodingErrorNtNtCsiy8hXAumaA3_6miette8protocol10Diagnostic4help
FN:469,_RNvXsZ_CscmLdlanZRvV_6gedcomNtB5_13EncodingErrorNtNtCsiy8hXAumaA3_6miette8protocol10Diagnostic6labels
FN:469,_RNCNvXsZ_CscmLdlanZRvV_6gedcomNtB7_13EncodingErrorNtNtCsiy8hXAumaA3_6miette8protocol10Diagnostic6labels0B7_
FN:469,_RNCNvXsZ_CscmLdlanZRvV_6gedcomNtB7_13EncodingErrorNtNtCsiy8hXAumaA3_6miette8protocol10Diagnostic6labelss_0B7_
FN:469,_RNvXsZ_CscmLdlanZRvV_6gedcomNtB5_13EncodingErrorNtNtCsiy8hXAumaA3_6miette8protocol10Diagnostic7related
FN:469,_RNCNvXsZ_CscmLdlanZRvV_6gedcomNtB7_13EncodingErrorNtNtCsiy8hXAumaA3_6miette8protocol10Diagnostic7related0B7_
FN:508,_RNvCscmLdlanZRvV_6gedcom20detect_file_encoding
FN:567,_RNvCscmLdlanZRvV_6gedcom20encoding_from_gedcom
FN:624,_RNvXs2_CscmLdlanZRvV_6gedcomeNtB5_12GEDCOMSource6splitn
FN:628,_RNvXs2_CscmLdlanZRvV_6gedcomeNtB5_12GEDCOMSource5lines
FN:630,_RNCNvXs2_CscmLdlanZRvV_6gedcomeNtB7_12GEDCOMSource5lines0B7_
FN:630,_RNCNvXs2_CscmLdlanZRvV_6gedcomeNtB7_12GEDCOMSource5liness_0B7_
FN:639,_RNvXs2_CscmLdlanZRvV_6gedcomeNtB5_12GEDCOMSource7span_of
FN:646,_RNvXs2_CscmLdlanZRvV_6gedcomeNtB5_12GEDCOMSource11starts_with
FN:650,_RNvXs2_CscmLdlanZRvV_6gedcomeNtB5_12GEDCOMSource9ends_with
FN:654,_RNvXs2_CscmLdlanZRvV_6gedcomeNtB5_12GEDCOMSource8is_empty
FN:658,_RNvXs2_CscmLdlanZRvV_6gedcomeNtB5_12GEDCOMSource10slice_from
FN:664,_RNvXs3_CscmLdlanZRvV_6gedcomShNtB5_12GEDCOMSource6splitn
FN:665,_RNCNvXs3_CscmLdlanZRvV_6gedcomShNtB7_12GEDCOMSource6splitn0B7_
FN:668,_RNvXs3_CscmLdlanZRvV_6gedcomShNtB5_12GEDCOMSource5lines
FN:670,_RNCNvXs3_CscmLdlanZRvV_6gedcomShNtB7_12GEDCOMSource5lines0B7_
FN:670,_RNCNvXs3_CscmLdlanZRvV_6gedcomShNtB7_12GEDCOMSource5liness_0B7_
FN:679,_RNvXs3_CscmLdlanZRvV_6gedcomShNtB5_12GEDCOMSource7span_of
FN:686,_RNvXs3_CscmLdlanZRvV_6gedcomShNtB5_12GEDCOMSource11starts_with
FN:690,_RNvXs3_CscmLdlanZRvV_6gedcomShNtB5_12GEDCOMSource9ends_with
FN:694,_RNvXs3_CscmLdlanZRvV_6gedcomShNtB5_12GEDCOMSource8is_empty
FN:698,_RNvXs3_CscmLdlanZRvV_6gedcomShNtB5_12GEDCOMSource10slice_from
FN:709,_RNvXs4_CscmLdlanZRvV_6gedcomNtB5_12ParseOptionsNtNtCsalHcryTVEJB_4core7default7Default7default
FN:722,_RNvCscmLdlanZRvV_6gedcom13iterate_lines
FN:798,_RINvCscmLdlanZRvV_6gedcom17iterate_lines_rawpEB2_
FN:801,_RNCINvCscmLdlanZRvV_6gedcom17iterate_lines_rawpE0B4_
FN:806,_RNCINvCscmLdlanZRvV_6gedcom17iterate_lines_rawpEs_0B4_
FN:819,_RNCNCINvCscmLdlanZRvV_6gedcom17iterate_lines_rawpEs_00B6_
FN:822,_RNCNCNCINvCscmLdlanZRvV_6gedcom17iterate_lines_rawpEs_000B8_
FN:832,_RNCNCNCINvCscmLdlanZRvV_6gedcom17iterate_lines_rawpEs_00s_0B8_
FN:845,_RNCNCNCINvCscmLdlanZRvV_6gedcom17iterate_lines_rawpEs_00s0_0B8_
FN:860,_RNCNCNCINvCscmLdlanZRvV_6gedcom17iterate_lines_rawpEs_00s1_0B8_
FN:865,_RNCNCNCINvCscmLdlanZRvV_6gedcom17iterate_lines_rawpEs_00s2_0B8_
FN:872,_RNCNCNCINvCscmLdlanZRvV_6gedcom17iterate_lines_rawpEs_00s3_0B8_
FN:889,_RNCNCNCINvCscmLdlanZRvV_6gedcom17iterate_lines_rawpEs_00s4_0B8_
FN:918,_RNvMs5_CscmLdlanZRvV_6gedcomINtB5_11ParseResultpNtNtCsalHcryTVEJB_4core7convert10InfallibleE10only_earlyB5_
FN:927,_RNvMs6_CscmLdlanZRvV_6gedcomINtB5_11ParseResultNtNtCsalHcryTVEJB_4core7convert10InfalliblepE13only_completeB5_
FN:943,_RNvXs7_CscmLdlanZRvV_6gedcomNtB5_3TagINtNtCsalHcryTVEJB_4core7convert7TryFromReE8try_from
FN:966,_RNvMs8_CscmLdlanZRvV_6gedcomINtB5_9CollectorpE3newB5_
FN:976,_RNvXINICscmLdlanZRvV_6gedcoms9_0pEINtB5_9CollectorpEINtB5_4SinkpE7consumeB5_
FN:981,_RNvXINICscmLdlanZRvV_6gedcoms9_0pEINtB5_9CollectorpEINtB5_4SinkpE8completeB5_
FN:993,_RNvXINICscmLdlanZRvV_6gedcomsa_0pENtB5_8NullSinkINtB5_4SinkpE7consumeB5_
FN:997,_RNvXINICscmLdlanZRvV_6gedcomsa_0pENtB5_8NullSinkINtB5_4SinkpE8completeB5_
FN:1008,_RNvMsb_CscmLdlanZRvV_6gedcomINtB5_7CounterpE3newB5_
FN:1021,_RNvXINICscmLdlanZRvV_6gedcomsc_0ppEINtB5_7CounterpEINtB5_4SinkpE7consumeB5_
FN:1033,_RNvXINICscmLdlanZRvV_6gedcomsc_0ppEINtB5_7CounterpEINtB5_4SinkpE8completeB5_
FN:1046,_RNvMsd_CscmLdlanZRvV_6gedcomINtB5_7SourcedpE6as_refB5_
FN:1052,_RINvMsd_CscmLdlanZRvV_6gedcomINtB6_7SourcedpE3mapppEB6_
FN:1062,_RNvXINICscmLdlanZRvV_6gedcomse_0pEINtB5_7SourcedpENtNtNtCsalHcryTVEJB_4core3ops5deref5Deref5derefB5_
FN:1077,_RINvMsf_CscmLdlanZRvV_6gedcomINtB6_9RawRecordpE12get_data_optpppEB6_
FN:1083,_RNCINvMsf_CscmLdlanZRvV_6gedcomINtB8_9RawRecordpE12get_data_optpppE0B8_
FN:1100,_RINvMsf_CscmLdlanZRvV_6gedcomINtB6_9RawRecordpE8get_datapppEB6_
FN:1106,_RNCINvMsf_CscmLdlanZRvV_6gedcomINtB8_9RawRecordpE8get_datapppE0B8_
FN:1113,_RNvMsf_CscmLdlanZRvV_6gedcomINtB5_9RawRecordpE17get_subrecord_optB5_
FN:1116,_RNCNvMsf_CscmLdlanZRvV_6gedcomINtB7_9RawRecordpE17get_subrecord_opt0B7_
FN:1119,_RNvMsf_CscmLdlanZRvV_6gedcomINtB5_9RawRecordpE13get_subrecordB5_
FN:1130,_RNCNvMsf_CscmLdlanZRvV_6gedcomINtB7_9RawRecordpE13get_subrecord0B7_
FN:1139,_RNvMsf_CscmLdlanZRvV_6gedcomINtB5_9RawRecordpE18get_subrecords_optB5_
FN:1148,_RNCNvMsf_CscmLdlanZRvV_6gedcomINtB7_9RawRecordpE18get_subrecords_opt0B7_
FN:1151,_RNvMsf_CscmLdlanZRvV_6gedcomINtB5_9RawRecordpE14get_subrecordsB5_
FN:1161,_RNCNvMsf_CscmLdlanZRvV_6gedcomINtB7_9RawRecordpE14get_subrecords0B7_
FN:1164,_RNCNvMsf_CscmLdlanZRvV_6gedcomINtB7_9RawRecordpE14get_subrecordss_0B7_
FN:1175,_RNvMsg_CscmLdlanZRvV_6gedcomINtB5_7SourcedINtB5_9RawRecordpEE13get_subrecordB5_
FN:1192,_RNvMsg_CscmLdlanZRvV_6gedcomINtB5_7SourcedINtB5_9RawRecordpEE14get_subrecordsB5_
FN:1207,_RINvCscmLdlanZRvV_6gedcom10build_treepEB2_
FN:1216,_RNvMNvCscmLdlanZRvV_6gedcom10build_treeINtB2_1IpE9pop_levelB4_
FN:1247,_RNvMNvCscmLdlanZRvV_6gedcom10build_treeINtB2_1IpE7consumeB4_
FN:1274,_RNvXININvCscmLdlanZRvV_6gedcom10build_trees_0pEINtB5_1IpENtNtNtNtCsalHcryTVEJB_4core4iter6traits8iterator8Iterator4nextB7_
FN:1305,_RNvMsh_CscmLdlanZRvV_6gedcomINtB5_9RawRecordpE3newB5_
FN:1318,_RNvMsi_CscmLdlanZRvV_6gedcomINtB5_17RecordTreeBuilderpppE3newB5_
FN:1326,_RNvMsi_CscmLdlanZRvV_6gedcomINtB5_17RecordTreeBuilderpppE9pop_childB5_
FN:1351,_RNvMsi_CscmLdlanZRvV_6gedcomINtB5_17RecordTreeBuilderpppE9pop_belowB5_
FN:1373,_RNvXINICscmLdlanZRvV_6gedcomsj_0pppEINtB5_17RecordTreeBuilderpppEINtB5_4SinkTINtB5_7SourcedjEIB1e_INtB5_7RawLinepEEEE7consumeB5_
FN:1393,_RNvXINICscmLdlanZRvV_6gedcomsj_0pppEINtB5_17RecordTreeBuilderpppEINtB5_4SinkTINtB5_7SourcedjEIB1e_INtB5_7RawLinepEEEE8completeB5_
FN:1402,_RNvCscmLdlanZRvV_6gedcom15validate_syntax
FN:1404,_RNCNvCscmLdlanZRvV_6gedcom15validate_syntax0B3_
FN:1581,_RNvMsk_CscmLdlanZRvV_6gedcomNtB5_16FileFormatParser3new
FN:1594,_RNvXs17_CscmLdlanZRvV_6gedcomNtB6_11SchemaErrorNtNtCsalHcryTVEJB_4core5error5Error6source
FN:1594,_RNvXs18_CscmLdlanZRvV_6gedcomNtB6_11SchemaErrorNtNtCsalHcryTVEJB_4core3fmt7Display3fmt
FN:1594,_RNvXs19_CscmLdlanZRvV_6gedcomNtB6_11SchemaErrorINtNtCsalHcryTVEJB_4core7convert4FromNtNtB6_9encodings9DataErrorE4from
FN:1594,_RNvXs1b_CscmLdlanZRvV_6gedcomNtB6_11SchemaErrorNtNtCsiy8hXAumaA3_6miette8protocol10Diagnostic4code
FN:1594,_RNvXs1b_CscmLdlanZRvV_6gedcomNtB6_11SchemaErrorNtNtCsiy8hXAumaA3_6miette8protocol10Diagnostic4help
FN:1594,_RNvXs1b_CscmLdlanZRvV_6gedcomNtB6_11SchemaErrorNtNtCsiy8hXAumaA3_6miette8protocol10Diagnostic8severity
FN:1594,_RNvXs1b_CscmLdlanZRvV_6gedcomNtB6_11SchemaErrorNtNtCsiy8hXAumaA3_6miette8protocol10Diagnostic6labels
FN:1594,_RNCNvXs1b_CscmLdlanZRvV_6gedcomNtB8_11SchemaErrorNtNtCsiy8hXAumaA3_6miette8protocol10Diagnostic6labels0B8_
FN:1594,_RNCNvXs1b_CscmLdlanZRvV_6gedcomNtB8_11SchemaErrorNtNtCsiy8hXAumaA3_6miette8protocol10Diagnostic6labelss_0B8_
FN:1594,_RNCNvXs1b_CscmLdlanZRvV_6gedcomNtB8_11SchemaErrorNtNtCsiy8hXAumaA3_6miette8protocol10Diagnostic6labelss0_0B8_
FN:1594,_RNCNvXs1b_CscmLdlanZRvV_6gedcomNtB8_11SchemaErrorNtNtCsiy8hXAumaA3_6miette8protocol10Diagnostic6labelss1_0B8_
FN:1594,_RNCNvXs1b_CscmLdlanZRvV_6gedcomNtB8_11SchemaErrorNtNtCsiy8hXAumaA3_6miette8protocol10Diagnostic6labelss2_0B8_
FN:1594,_RNCNvXs1b_CscmLdlanZRvV_6gedcomNtB8_11SchemaErrorNtNtCsiy8hXAumaA3_6miette8protocol10Diagnostic6labelss3_0B8_
FN:1594,_RNCNvXs1b_CscmLdlanZRvV_6gedcomNtB8_11SchemaErrorNtNtCsiy8hXAumaA3_6miette8protocol10Diagnostic6labelss4_0B8_
FN:1594,_RNvXs1b_CscmLdlanZRvV_6gedcomNtB6_11SchemaErrorNtNtCsiy8hXAumaA3_6miette8protocol10Diagnostic11source_code
FN:1594,_RNvXs1b_CscmLdlanZRvV_6gedcomNtB6_11SchemaErrorNtNtCsiy8hXAumaA3_6miette8protocol10Diagnostic7related
FN:1594,_RNvXs1b_CscmLdlanZRvV_6gedcomNtB6_11SchemaErrorNtNtCsiy8hXAumaA3_6miette8protocol10Diagnostic3url
FN:1594,_RNvXs1b_CscmLdlanZRvV_6gedcomNtB6_11SchemaErrorNtNtCsiy8hXAumaA3_6miette8protocol10Diagnostic17diagnostic_source
FN:1207,_RINvCs94xiAUca6ke_6gedcom10build_treeINtNtNtCs5hBMTNmLnRE_5alloc3vec9into_iter8IntoIterTINtB2_7SourcedjEIB1p_INtB2_7RawLineeEEEEECsitNhyB3gKic_5tests
FN:801,_RNCINvCs94xiAUca6ke_6gedcom17iterate_lines_raweE0CsitNhyB3gKic_5tests
FN:806,_RNCINvCs94xiAUca6ke_6gedcom17iterate_lines_raweEs_0CsitNhyB3gKic_5tests
FN:819,_RNCNCINvCs94xiAUca6ke_6gedcom17iterate_lines_raweEs_00CsitNhyB3gKic_5tests
FN:822,_RNCNCNCINvCs94xiAUca6ke_6gedcom17iterate_lines_raweEs_000CsitNhyB3gKic_5tests
FN:845,_RNCNCNCINvCs94xiAUca6ke_6gedcom17iterate_lines_raweEs_00s0_0CsitNhyB3gKic_5tests
FN:860,_RNCNCNCINvCs94xiAUca6ke_6gedcom17iterate_lines_raweEs_00s1_0CsitNhyB3gKic_5tests
FN:865,_RNCNCNCINvCs94xiAUca6ke_6gedcom17iterate_lines_raweEs_00s2_0CsitNhyB3gKic_5tests
FN:872,_RNCNCNCINvCs94xiAUca6ke_6gedcom17iterate_lines_raweEs_00s3_0CsitNhyB3gKic_5tests
FN:889,_RNCNCNCINvCs94xiAUca6ke_6gedcom17iterate_lines_raweEs_00s4_0CsitNhyB3gKic_5tests
FN:832,_RNCNCNCINvCs94xiAUca6ke_6gedcom17iterate_lines_raweEs_00s_0CsitNhyB3gKic_5tests
FN:630,_RNCNvXs2_Cs94xiAUca6ke_6gedcomeNtB7_12GEDCOMSource5lines0CsitNhyB3gKic_5tests
FN:630,_RNCNvXs2_Cs94xiAUca6ke_6gedcomeNtB7_12GEDCOMSource5liness_0CsitNhyB3gKic_5tests
FN:1247,_RNvMNvCs94xiAUca6ke_6gedcom10build_treeINtB2_1IINtNtNtCs5hBMTNmLnRE_5alloc3vec9into_iter8IntoIterTINtB4_7SourcedjEIB1z_INtB4_7RawLineeEEEEE7consumeCsitNhyB3gKic_5tests
FN:1216,_RNvMNvCs94xiAUca6ke_6gedcom10build_treeINtB2_1IINtNtNtCs5hBMTNmLnRE_5alloc3vec9into_iter8IntoIterTINtB4_7SourcedjEIB1z_INtB4_7RawLineeEEEEE9pop_levelCsitNhyB3gKic_5tests
FN:1305,_RNvMsh_Cs94xiAUca6ke_6gedcomNtB5_9RawRecord3newCsitNhyB3gKic_5tests
FN:1274,_RNvXs_NvCs94xiAUca6ke_6gedcom10build_treeINtB4_1IINtNtNtCs5hBMTNmLnRE_5alloc3vec9into_iter8IntoIterTINtB6_7SourcedjEIB1B_INtB6_7RawLineeEEEEENtNtNtNtCsalHcryTVEJB_4core4iter6traits8iterator8Iterator4nextCsitNhyB3gKic_5tests
FN:1062,_RNvXse_Cs94xiAUca6ke_6gedcomINtB5_7SourcedINtB5_7RawLineeEENtNtNtCsalHcryTVEJB_4core3ops5deref5Deref5derefCsitNhyB3gKic_5tests
FN:1062,_RNvXse_Cs94xiAUca6ke_6gedcomINtB5_7SourcedRNtNtCsbcyttY3WPus_5ascii9ascii_str8AsciiStrENtNtNtCsalHcryTVEJB_4core3ops5deref5Deref5derefCsitNhyB3gKic_5tests
FN:42,_RNvXCs94xiAUca6ke_6gedcomNtB2_11GedcomErrorINtNtCsalHcryTVEJB_4core7convert4FromNtBI_10InfallibleE4from
FN:160,_RNvXs_Cs94xiAUca6ke_6gedcomNtB4_17SupportedEncodingNtNtCsalHcryTVEJB_4core3fmt7Display3fmt
FN:180,_RNvMs0_Cs94xiAUca6ke_6gedcomNtB5_16DetectedEncoding6decode
FN:265,_RNvMs1_Cs94xiAUca6ke_6gedcomNtB5_8AnselErr6offset
FN:274,_RNvCs94xiAUca6ke_6gedcom12decode_ansel
FN:508,_RNvCs94xiAUca6ke_6gedcom20detect_file_encoding
FN:567,_RNvCs94xiAUca6ke_6gedcom20encoding_from_gedcom
FN:624,_RNvXs2_Cs94xiAUca6ke_6gedcomeNtB5_12GEDCOMSource6splitn
FN:628,_RNvXs2_Cs94xiAUca6ke_6gedcomeNtB5_12GEDCOMSource5lines
FN:639,_RNvXs2_Cs94xiAUca6ke_6gedcomeNtB5_12GEDCOMSource7span_of
FN:646,_RNvXs2_Cs94xiAUca6ke_6gedcomeNtB5_12GEDCOMSource11starts_with
FN:650,_RNvXs2_Cs94xiAUca6ke_6gedcomeNtB5_12GEDCOMSource9ends_with
FN:654,_RNvXs2_Cs94xiAUca6ke_6gedcomeNtB5_12GEDCOMSource8is_empty
FN:658,_RNvXs2_Cs94xiAUca6ke_6gedcomeNtB5_12GEDCOMSource10slice_from
FN:664,_RNvXs3_Cs94xiAUca6ke_6gedcomShNtB5_12GEDCOMSource6splitn
FN:668,_RNvXs3_Cs94xiAUca6ke_6gedcomShNtB5_12GEDCOMSource5lines
FN:679,_RNvXs3_Cs94xiAUca6ke_6gedcomShNtB5_12GEDCOMSource7span_of
FN:686,_RNvXs3_Cs94xiAUca6ke_6gedcomShNtB5_12GEDCOMSource11starts_with
FN:690,_RNvXs3_Cs94xiAUca6ke_6gedcomShNtB5_12GEDCOMSource9ends_with
FN:694,_RNvXs3_Cs94xiAUca6ke_6gedcomShNtB5_12GEDCOMSource8is_empty
FN:698,_RNvXs3_Cs94xiAUca6ke_6gedcomShNtB5_12GEDCOMSource10slice_from
FN:709,_RNvXs4_Cs94xiAUca6ke_6gedcomNtB5_12ParseOptionsNtNtCsalHcryTVEJB_4core7default7Default7default
FN:722,_RNvCs94xiAUca6ke_6gedcom13iterate_lines
FN:943,_RNvXs7_Cs94xiAUca6ke_6gedcomNtB5_3TagINtNtCsalHcryTVEJB_4core7convert7TryFromReE8try_from
FN:1402,_RNvCs94xiAUca6ke_6gedcom15validate_syntax
FN:17,_RNvXsl_Cs94xiAUca6ke_6gedcomNtB5_11GedcomErrorNtNtCsalHcryTVEJB_4core5error5Error6source
FN:17,_RNvXsm_Cs94xiAUca6ke_6gedcomNtB5_11GedcomErrorNtNtCsalHcryTVEJB_4core3fmt7Display3fmt
FN:17,_RNvXsn_Cs94xiAUca6ke_6gedcomNtB5_11GedcomErrorINtNtCsalHcryTVEJB_4core7convert4FromNtB5_15LineSyntaxErrorE4from
FN:17,_RNvXso_Cs94xiAUca6ke_6gedcomNtB5_11GedcomErrorINtNtCsalHcryTVEJB_4core7convert4FromNtB5_18LineStructureErrorE4from
FN:17,_RNvXsp_Cs94xiAUca6ke_6gedcomNtB5_11GedcomErrorINtNtCsalHcryTVEJB_4core7convert4FromNtB5_11SchemaErrorE4from
FN:17,_RNvXsr_Cs94xiAUca6ke_6gedcomNtB5_11GedcomErrorNtNtCsiy8hXAumaA3_6miette8protocol10Diagnostic4code
FN:17,_RNvXsr_Cs94xiAUca6ke_6gedcomNtB5_11GedcomErrorNtNtCsiy8hXAumaA3_6miette8protocol10Diagnostic4help
FN:17,_RNvXsr_Cs94xiAUca6ke_6gedcomNtB5_11GedcomErrorNtNtCsiy8hXAumaA3_6miette8protocol10Diagnostic8severity
FN:17,_RNvXsr_Cs94xiAUca6ke_6gedcomNtB5_11GedcomErrorNtNtCsiy8hXAumaA3_6miette8protocol10Diagnostic6labels
FN:17,_RNvXsr_Cs94xiAUca6ke_6gedcomNtB5_11GedcomErrorNtNtCsiy8hXAumaA3_6miette8protocol10Diagnostic11source_code
FN:17,_RNvXsr_Cs94xiAUca6ke_6gedcomNtB5_11GedcomErrorNtNtCsiy8hXAumaA3_6miette8protocol10Diagnostic7related
FN:17,_RNvXsr_Cs94xiAUca6ke_6gedcomNtB5_11GedcomErrorNtNtCsiy8hXAumaA3_6miette8protocol10Diagnostic3url
FN:17,_RNvXsr_Cs94xiAUca6ke_6gedcomNtB5_11GedcomErrorNtNtCsiy8hXAumaA3_6miette8protocol10Diagnostic17diagnostic_source
FN:32,_RNvXst_Cs94xiAUca6ke_6gedcomNtB5_15ValidationErrorNtNtCsalHcryTVEJB_4core3fmt7Display3fmt
FN:32,_RNvXsv_Cs94xiAUca6ke_6gedcomNtB5_15ValidationErrorNtNtCsiy8hXAumaA3_6miette8protocol10Diagnostic7related
FN:47,_RNvXsw_Cs94xiAUca6ke_6gedcomNtB5_15LineSyntaxErrorNtNtCsalHcryTVEJB_4core5error5Error6source
FN:47,_RNvXsx_Cs94xiAUca6ke_6gedcomNtB5_15LineSyntaxErrorNtNtCsalHcryTVEJB_4core3fmt7Display3fmt
FN:47,_RNvXsz_Cs94xiAUca6ke_6gedcomNtB5_15LineSyntaxErrorNtNtCsiy8hXAumaA3_6miette8protocol10Diagnostic4code
FN:47,_RNvXsz_Cs94xiAUca6ke_6gedcomNtB5_15LineSyntaxErrorNtNtCsiy8hXAumaA3_6miette8protocol10Diagnostic4help
FN:47,_RNvXsz_Cs94xiAUca6ke_6gedcomNtB5_15LineSyntaxErrorNtNtCsiy8hXAumaA3_6miette8protocol10Diagnostic6labels
FN:91,_RNvXsB_Cs94xiAUca6ke_6gedcomNtB5_18LineStructureErrorNtNtCsalHcryTVEJB_4core3fmt7Display3fmt
FN:91,_RNvXsD_Cs94xiAUca6ke_6gedcomNtB5_18LineStructureErrorNtNtCsiy8hXAumaA3_6miette8protocol10Diagnostic4code
FN:91,_RNvXsD_Cs94xiAUca6ke_6gedcomNtB5_18LineStructureErrorNtNtCsiy8hXAumaA3_6miette8protocol10Diagnostic6labels
FN:252,_RNvXsM_Cs94xiAUca6ke_6gedcomNtB5_8AnselErrNtNtCsalHcryTVEJB_4core3fmt7Display3fmt
FN:438,_RNvXsR_Cs94xiAUca6ke_6gedcomNtB5_14EncodingReasonNtNtCsalHcryTVEJB_4core3fmt7Display3fmt
FN:438,_RNvXsT_Cs94xiAUca6ke_6gedcomNtB5_14EncodingReasonNtNtCsiy8hXAumaA3_6miette8protocol10Diagnostic4code
FN:438,_RNvXsT_Cs94xiAUca6ke_6gedcomNtB5_14EncodingReasonNtNtCsiy8hXAumaA3_6miette8protocol10Diagnostic8severity
FN:438,_RNvXsT_Cs94xiAUca6ke_6gedcomNtB5_14EncodingReasonNtNtCsiy8hXAumaA3_6miette8protocol10Diagnostic6labels
FN:469,_RNvXsW_Cs94xiAUca6ke_6gedcomNtB5_13EncodingErrorNtNtCsalHcryTVEJB_4core5error5Error6source
FN:469,_RNvXsX_Cs94xiAUca6ke_6gedcomNtB5_13EncodingErrorNtNtCsalHcryTVEJB_4core3fmt7Display3fmt
FN:469,_RNvXsZ_Cs94xiAUca6ke_6gedcomNtB5_13EncodingErrorNtNtCsiy8hXAumaA3_6miette8protocol10Diagnostic4code
FN:469,_RNvXsZ_Cs94xiAUca6ke_6gedcomNtB5_13EncodingErrorNtNtCsiy8hXAumaA3_6miette8protocol10Diagnostic4help
FN:469,_RNvXsZ_Cs94xiAUca6ke_6gedcomNtB5_13EncodingErrorNtNtCsiy8hXAumaA3_6miette8protocol10Diagnostic6labels
FN:469,_RNvXsZ_Cs94xiAUca6ke_6gedcomNtB5_13EncodingErrorNtNtCsiy8hXAumaA3_6miette8protocol10Diagnostic7related
FN:1594,_RNvXs17_Cs94xiAUca6ke_6gedcomNtB6_11SchemaErrorNtNtCsalHcryTVEJB_4core5error5Error6source
FN:1594,_RNvXs18_Cs94xiAUca6ke_6gedcomNtB6_11SchemaErrorNtNtCsalHcryTVEJB_4core3fmt7Display3fmt
FN:1594,_RNvXs19_Cs94xiAUca6ke_6gedcomNtB6_11SchemaErrorINtNtCsalHcryTVEJB_4core7convert4FromNtNtB6_9encodings9DataErrorE4from
FN:1594,_RNvXs1b_Cs94xiAUca6ke_6gedcomNtB6_11SchemaErrorNtNtCsiy8hXAumaA3_6miette8protocol10Diagnostic4code
FN:1594,_RNvXs1b_Cs94xiAUca6ke_6gedcomNtB6_11SchemaErrorNtNtCsiy8hXAumaA3_6miette8protocol10Diagnostic4help
FN:1594,_RNvXs1b_Cs94xiAUca6ke_6gedcomNtB6_11SchemaErrorNtNtCsiy8hXAumaA3_6miette8protocol10Diagnostic8severity
FN:1594,_RNvXs1b_Cs94xiAUca6ke_6gedcomNtB6_11SchemaErrorNtNtCsiy8hXAumaA3_6miette8protocol10Diagnostic6labels
FN:1594,_RNvXs1b_Cs94xiAUca6ke_6gedcomNtB6_11SchemaErrorNtNtCsiy8hXAumaA3_6miette8protocol10Diagnostic11source_code
FN:1594,_RNvXs1b_Cs94xiAUca6ke_6gedcomNtB6_11SchemaErrorNtNtCsiy8hXAumaA3_6miette8protocol10Diagnostic7related
FN:1594,_RNvXs1b_Cs94xiAUca6ke_6gedcomNtB6_11SchemaErrorNtNtCsiy8hXAumaA3_6miette8protocol10Diagnostic3url
FN:1594,_RNvXs1b_Cs94xiAUca6ke_6gedcomNtB6_11SchemaErrorNtNtCsiy8hXAumaA3_6miette8protocol10Diagnostic17diagnostic_source
FN:192,_RNCNvMs0_Cs94xiAUca6ke_6gedcomNtB7_16DetectedEncoding6decode0B7_
FN:204,_RNCNvMs0_Cs94xiAUca6ke_6gedcomNtB7_16DetectedEncoding6decodes_0B7_
FN:212,_RNCNvMs0_Cs94xiAUca6ke_6gedcomNtB7_16DetectedEncoding6decodes0_0B7_
FN:665,_RNCNvXs3_Cs94xiAUca6ke_6gedcomShNtB7_12GEDCOMSource6splitn0B7_
FN:670,_RNCNvXs3_Cs94xiAUca6ke_6gedcomShNtB7_12GEDCOMSource5lines0B7_
FN:670,_RNCNvXs3_Cs94xiAUca6ke_6gedcomShNtB7_12GEDCOMSource5liness_0B7_
FN:798,_RINvCs94xiAUca6ke_6gedcom17iterate_lines_rawShEB2_
FN:798,_RINvCs94xiAUca6ke_6gedcom17iterate_lines_raweEB2_
FN:801,_RNCINvCs94xiAUca6ke_6gedcom17iterate_lines_rawShE0B4_
FN:806,_RNCINvCs94xiAUca6ke_6gedcom17iterate_lines_rawShEs_0B4_
FN:819,_RNCNCINvCs94xiAUca6ke_6gedcom17iterate_lines_rawShEs_00B6_
FN:822,_RNCNCNCINvCs94xiAUca6ke_6gedcom17iterate_lines_rawShEs_000B8_
FN:832,_RNCNCNCINvCs94xiAUca6ke_6gedcom17iterate_lines_rawShEs_00s_0B8_
FN:845,_RNCNCNCINvCs94xiAUca6ke_6gedcom17iterate_lines_rawShEs_00s0_0B8_
FN:860,_RNCNCNCINvCs94xiAUca6ke_6gedcom17iterate_lines_rawShEs_00s1_0B8_
FN:865,_RNCNCNCINvCs94xiAUca6ke_6gedcom17iterate_lines_rawShEs_00s2_0B8_
FN:872,_RNCNCNCINvCs94xiAUca6ke_6gedcom17iterate_lines_rawShEs_00s3_0B8_
FN:889,_RNCNCNCINvCs94xiAUca6ke_6gedcom17iterate_lines_rawShEs_00s4_0B8_
FN:1062,_RNvXse_Cs94xiAUca6ke_6gedcomINtB5_7SourcedINtB5_7RawLineShEENtNtNtCsalHcryTVEJB_4core3ops5deref5Deref5derefB5_
FN:1062,_RNvXse_Cs94xiAUca6ke_6gedcomINtB5_7SourcedRShENtNtNtCsalHcryTVEJB_4core3ops5deref5Deref5derefB5_
FN:1404,_RNCNvCs94xiAUca6ke_6gedcom15validate_syntax0B3_
FN:32,_RNCNvXsv_Cs94xiAUca6ke_6gedcomNtB7_15ValidationErrorNtNtCsiy8hXAumaA3_6miette8protocol10Diagnostic7related0B7_
FN:47,_RNCNvXsz_Cs94xiAUca6ke_6gedcomNtB7_15LineSyntaxErrorNtNtCsiy8hXAumaA3_6miette8protocol10Diagnostic6labels0B7_
FN:47,_RNCNvXsz_Cs94xiAUca6ke_6gedcomNtB7_15LineSyntaxErrorNtNtCsiy8hXAumaA3_6miette8protocol10Diagnostic6labelss_0B7_
FN:47,_RNCNvXsz_Cs94xiAUca6ke_6gedcomNtB7_15LineSyntaxErrorNtNtCsiy8hXAumaA3_6miette8protocol10Diagnostic6labelss0_0B7_
FN:47,_RNCNvXsz_Cs94xiAUca6ke_6gedcomNtB7_15LineSyntaxErrorNtNtCsiy8hXAumaA3_6miette8protocol10Diagnostic6labelss1_0B7_
FN:91,_RNCNvXsD_Cs94xiAUca6ke_6gedcomNtB7_18LineStructureErrorNtNtCsiy8hXAumaA3_6miette8protocol10Diagnostic6labels0B7_
FN:438,_RNCNvXsT_Cs94xiAUca6ke_6gedcomNtB7_14EncodingReasonNtNtCsiy8hXAumaA3_6miette8protocol10Diagnostic6labels0B7_
FN:438,_RNCNvXsT_Cs94xiAUca6ke_6gedcomNtB7_14EncodingReasonNtNtCsiy8hXAumaA3_6miette8protocol10Diagnostic6labelss_0B7_
FN:469,_RNCNvXsZ_Cs94xiAUca6ke_6gedcomNtB7_13EncodingErrorNtNtCsiy8hXAumaA3_6miette8protocol10Diagnostic7related0B7_
FN:469,_RNCNvXsZ_Cs94xiAUca6ke_6gedcomNtB7_13EncodingErrorNtNtCsiy8hXAumaA3_6miette8protocol10Diagnostic6labels0B7_
FN:469,_RNCNvXsZ_Cs94xiAUca6ke_6gedcomNtB7_13EncodingErrorNtNtCsiy8hXAumaA3_6miette8protocol10Diagnostic6labelss_0B7_
FN:1594,_RNCNvXs1b_Cs94xiAUca6ke_6gedcomNtB8_11SchemaErrorNtNtCsiy8hXAumaA3_6miette8protocol10Diagnostic6labels0B8_
FN:1594,_RNCNvXs1b_Cs94xiAUca6ke_6gedcomNtB8_11SchemaErrorNtNtCsiy8hXAumaA3_6miette8protocol10Diagnostic6labelss_0B8_
FN:1594,_RNCNvXs1b_Cs94xiAUca6ke_6gedcomNtB8_11SchemaErrorNtNtCsiy8hXAumaA3_6miette8protocol10Diagnostic6labelss0_0B8_
FN:1594,_RNCNvXs1b_Cs94xiAUca6ke_6gedcomNtB8_11SchemaErrorNtNtCsiy8hXAumaA3_6miette8protocol10Diagnostic6labelss1_0B8_
FN:1594,_RNCNvXs1b_Cs94xiAUca6ke_6gedcomNtB8_11SchemaErrorNtNtCsiy8hXAumaA3_6miette8protocol10Diagnostic6labelss2_0B8_
FN:1594,_RNCNvXs1b_Cs94xiAUca6ke_6gedcomNtB8_11SchemaErrorNtNtCsiy8hXAumaA3_6miette8protocol10Diagnostic6labelss3_0B8_
FN:1594,_RNCNvXs1b_Cs94xiAUca6ke_6gedcomNtB8_11SchemaErrorNtNtCsiy8hXAumaA3_6miette8protocol10Diagnostic6labelss4_0B8_
FN:630,_RNCNvXs2_Cs94xiAUca6ke_6gedcomeNtB7_12GEDCOMSource5lines0B7_
FN:630,_RNCNvXs2_Cs94xiAUca6ke_6gedcomeNtB7_12GEDCOMSource5liness_0B7_
FN:918,_RNvMs5_Cs94xiAUca6ke_6gedcomINtB5_11ParseResultpNtNtCsalHcryTVEJB_4core7convert10InfallibleE10only_earlyB5_
FN:927,_RNvMs6_Cs94xiAUca6ke_6gedcomINtB5_11ParseResultNtNtCsalHcryTVEJB_4core7convert10InfalliblepE13only_completeB5_
FN:966,_RNvMs8_Cs94xiAUca6ke_6gedcomINtB5_9CollectorpE3newB5_
FN:976,_RNvXINICs94xiAUca6ke_6gedcoms9_0pEINtB5_9CollectorpEINtB5_4SinkpE7consumeB5_
FN:981,_RNvXINICs94xiAUca6ke_6gedcoms9_0pEINtB5_9CollectorpEINtB5_4SinkpE8completeB5_
FN:993,_RNvXINICs94xiAUca6ke_6gedcomsa_0pENtB5_8NullSinkINtB5_4SinkpE7consumeB5_
FN:997,_RNvXINICs94xiAUca6ke_6gedcomsa_0pENtB5_8NullSinkINtB5_4SinkpE8completeB5_
FN:1008,_RNvMsb_Cs94xiAUca6ke_6gedcomINtB5_7CounterpE3newB5_
FN:1021,_RNvXINICs94xiAUca6ke_6gedcomsc_0ppEINtB5_7CounterpEINtB5_4SinkpE7consumeB5_
FN:1033,_RNvXINICs94xiAUca6ke_6gedcomsc_0ppEINtB5_7CounterpEINtB5_4SinkpE8completeB5_
FN:1046,_RNvMsd_Cs94xiAUca6ke_6gedcomINtB5_7SourcedpE6as_refB5_
FN:1052,_RINvMsd_Cs94xiAUca6ke_6gedcomINtB6_7SourcedpE3mapppEB6_
FN:1077,_RINvMsf_Cs94xiAUca6ke_6gedcomINtB6_9RawRecordpE12get_data_optpppEB6_
FN:1083,_RNCINvMsf_Cs94xiAUca6ke_6gedcomINtB8_9RawRecordpE12get_data_optpppE0B8_
FN:1100,_RINvMsf_Cs94xiAUca6ke_6gedcomINtB6_9RawRecordpE8get_datapppEB6_
FN:1106,_RNCINvMsf_Cs94xiAUca6ke_6gedcomINtB8_9RawRecordpE8get_datapppE0B8_
FN:1113,_RNvMsf_Cs94xiAUca6ke_6gedcomINtB5_9RawRecordpE17get_subrecord_optB5_
FN:1116,_RNCNvMsf_Cs94xiAUca6ke_6gedcomINtB7_9RawRecordpE17get_subrecord_opt0B7_
FN:1119,_RNvMsf_Cs94xiAUca6ke_6gedcomINtB5_9RawRecordpE13get_subrecordB5_
FN:1130,_RNCNvMsf_Cs94xiAUca6ke_6gedcomINtB7_9RawRecordpE13get_subrecord0B7_
FN:1139,_RNvMsf_Cs94xiAUca6ke_6gedcomINtB5_9RawRecordpE18get_subrecords_optB5_
FN:1148,_RNCNvMsf_Cs94xiAUca6ke_6gedcomINtB7_9RawRecordpE18get_subrecords_opt0B7_
FN:1151,_RNvMsf_Cs94xiAUca6ke_6gedcomINtB5_9RawRecordpE14get_subrecordsB5_
FN:1161,_RNCNvMsf_Cs94xiAUca6ke_6gedcomINtB7_9RawRecordpE14get_subrecords0B7_
FN:1164,_RNCNvMsf_Cs94xiAUca6ke_6gedcomINtB7_9RawRecordpE14get_subrecordss_0B7_
FN:1175,_RNvMsg_Cs94xiAUca6ke_6gedcomINtB5_7SourcedINtB5_9RawRecordpEE13get_subrecordB5_
FN:1192,_RNvMsg_Cs94xiAUca6ke_6gedcomINtB5_7SourcedINtB5_9RawRecordpEE14get_subrecordsB5_
FN:1207,_RINvCs94xiAUca6ke_6gedcom10build_treepEB2_
FN:1216,_RNvMNvCs94xiAUca6ke_6gedcom10build_treeINtB2_1IpE9pop_levelB4_
FN:1247,_RNvMNvCs94xiAUca6ke_6gedcom10build_treeINtB2_1IpE7consumeB4_
FN:1274,_RNvXININvCs94xiAUca6ke_6gedcom10build_trees_0pEINtB5_1IpENtNtNtNtCsalHcryTVEJB_4core4iter6traits8iterator8Iterator4nextB7_
FN:1305,_RNvMsh_Cs94xiAUca6ke_6gedcomINtB5_9RawRecordpE3newB5_
FN:1318,_RNvMsi_Cs94xiAUca6ke_6gedcomINtB5_17RecordTreeBuilderpppE3newB5_
FN:1326,_RNvMsi_Cs94xiAUca6ke_6gedcomINtB5_17RecordTreeBuilderpppE9pop_childB5_
FN:1351,_RNvMsi_Cs94xiAUca6ke_6gedcomINtB5_17RecordTreeBuilderpppE9pop_belowB5_
FN:1373,_RNvXINICs94xiAUca6ke_6gedcomsj_0pppEINtB5_17RecordTreeBuilderpppEINtB5_4SinkTINtB5_7SourcedjEIB1e_INtB5_7RawLinepEEEE7consumeB5_
FN:1393,_RNvXINICs94xiAUca6ke_6gedcomsj_0pppEINtB5_17RecordTreeBuilderpppEINtB5_4SinkTINtB5_7SourcedjEIB1e_INtB5_7RawLinepEEEE8completeB5_
FN:1581,_RNvMsk_Cs94xiAUca6ke_6gedcomNtB5_16FileFormatParser3new
FNDA:0,_RNvXsl_CscmLdlanZRvV_6gedcomNtB5_11GedcomErrorNtNtCsalHcryTVEJB_4core5error5Error6source
FNDA:0,_RNvXsm_CscmLdlanZRvV_6gedcomNtB5_11GedcomErrorNtNtCsalHcryTVEJB_4core3fmt7Display3fmt
FNDA:0,_RNvXsn_CscmLdlanZRvV_6gedcomNtB5_11GedcomErrorINtNtCsalHcryTVEJB_4core7convert4FromNtB5_15LineSyntaxErrorE4from
FNDA:0,_RNvXso_CscmLdlanZRvV_6gedcomNtB5_11GedcomErrorINtNtCsalHcryTVEJB_4core7convert4FromNtB5_18LineStructureErrorE4from
FNDA:0,_RNvXsp_CscmLdlanZRvV_6gedcomNtB5_11GedcomErrorINtNtCsalHcryTVEJB_4core7convert4FromNtB5_11SchemaErrorE4from
FNDA:0,_RNvXsr_CscmLdlanZRvV_6gedcomNtB5_11GedcomErrorNtNtCsiy8hXAumaA3_6miette8protocol10Diagnostic4code
FNDA:0,_RNvXsr_CscmLdlanZRvV_6gedcomNtB5_11GedcomErrorNtNtCsiy8hXAumaA3_6miette8protocol10Diagnostic4help
FNDA:0,_RNvXsr_CscmLdlanZRvV_6gedcomNtB5_11GedcomErrorNtNtCsiy8hXAumaA3_6miette8protocol10Diagnostic8severity
FNDA:0,_RNvXsr_CscmLdlanZRvV_6gedcomNtB5_11GedcomErrorNtNtCsiy8hXAumaA3_6miette8protocol10Diagnostic6labels
FNDA:0,_RNvXsr_CscmLdlanZRvV_6gedcomNtB5_11GedcomErrorNtNtCsiy8hXAumaA3_6miette8protocol10Diagnostic11source_code
FNDA:0,_RNvXsr_CscmLdlanZRvV_6gedcomNtB5_11GedcomErrorNtNtCsiy8hXAumaA3_6miette8protocol10Diagnostic7related
FNDA:0,_RNvXsr_CscmLdlanZRvV_6gedcomNtB5_11GedcomErrorNtNtCsiy8hXAumaA3_6miette8protocol10Diagnostic3url
FNDA:0,_RNvXsr_CscmLdlanZRvV_6gedcomNtB5_11GedcomErrorNtNtCsiy8hXAumaA3_6miette8protocol10Diagnostic17diagnostic_source
FNDA:0,_RNvXst_CscmLdlanZRvV_6gedcomNtB5_15ValidationErrorNtNtCsalHcryTVEJB_4core3fmt7Display3fmt
FNDA:0,_RNvXsv_CscmLdlanZRvV_6gedcomNtB5_15ValidationErrorNtNtCsiy8hXAumaA3_6miette8protocol10Diagnostic7related
FNDA:0,_RNCNvXsv_CscmLdlanZRvV_6gedcomNtB7_15ValidationErrorNtNtCsiy8hXAumaA3_6miette8protocol10Diagnostic7related0B7_
FNDA:0,_RNvXCscmLdlanZRvV_6gedcomNtB2_11GedcomErrorINtNtCsalHcryTVEJB_4core7convert4FromNtBI_10InfallibleE4from
FNDA:0,_RNvXsw_CscmLdlanZRvV_6gedcomNtB5_15LineSyntaxErrorNtNtCsalHcryTVEJB_4core5error5Error6source
FNDA:0,_RNvXsx_CscmLdlanZRvV_6gedcomNtB5_15LineSyntaxErrorNtNtCsalHcryTVEJB_4core3fmt7Display3fmt
FNDA:0,_RNvXsz_CscmLdlanZRvV_6gedcomNtB5_15LineSyntaxErrorNtNtCsiy8hXAumaA3_6miette8protocol10Diagnostic4code
FNDA:0,_RNvXsz_CscmLdlanZRvV_6gedcomNtB5_15LineSyntaxErrorNtNtCsiy8hXAumaA3_6miette8protocol10Diagnostic4help
FNDA:0,_RNvXsz_CscmLdlanZRvV_6gedcomNtB5_15LineSyntaxErrorNtNtCsiy8hXAumaA3_6miette8protocol10Diagnostic6labels
FNDA:0,_RNCNvXsz_CscmLdlanZRvV_6gedcomNtB7_15LineSyntaxErrorNtNtCsiy8hXAumaA3_6miette8protocol10Diagnostic6labels0B7_
FNDA:0,_RNCNvXsz_CscmLdlanZRvV_6gedcomNtB7_15LineSyntaxErrorNtNtCsiy8hXAumaA3_6miette8protocol10Diagnostic6labelss_0B7_
FNDA:0,_RNCNvXsz_CscmLdlanZRvV_6gedcomNtB7_15LineSyntaxErrorNtNtCsiy8hXAumaA3_6miette8protocol10Diagnostic6labelss0_0B7_
FNDA:0,_RNCNvXsz_CscmLdlanZRvV_6gedcomNtB7_15LineSyntaxErrorNtNtCsiy8hXAumaA3_6miette8protocol10Diagnostic6labelss1_0B7_
FNDA:0,_RNvXsB_CscmLdlanZRvV_6gedcomNtB5_18LineStructureErrorNtNtCsalHcryTVEJB_4core3fmt7Display3fmt
FNDA:0,_RNvXsD_CscmLdlanZRvV_6gedcomNtB5_18LineStructureErrorNtNtCsiy8hXAumaA3_6miette8protocol10Diagnostic4code
FNDA:0,_RNvXsD_CscmLdlanZRvV_6gedcomNtB5_18LineStructureErrorNtNtCsiy8hXAumaA3_6miette8protocol10Diagnostic6labels
FNDA:0,_RNCNvXsD_CscmLdlanZRvV_6gedcomNtB7_18LineStructureErrorNtNtCsiy8hXAumaA3_6miette8protocol10Diagnostic6labels0B7_
FNDA:0,_RNvXs_CscmLdlanZRvV_6gedcomNtB4_17SupportedEncodingNtNtCsalHcryTVEJB_4core3fmt7Display3fmt
FNDA:0,_RNvMs0_CscmLdlanZRvV_6gedcomNtB5_16DetectedEncoding6decode
FNDA:0,_RNCNvMs0_CscmLdlanZRvV_6gedcomNtB7_16DetectedEncoding6decode0B7_
FNDA:0,_RNCNvMs0_CscmLdlanZRvV_6gedcomNtB7_16DetectedEncoding6decodes_0B7_
FNDA:0,_RNCNvMs0_CscmLdlanZRvV_6gedcomNtB7_16DetectedEncoding6decodes0_0B7_
FNDA:0,_RNvXsM_CscmLdlanZRvV_6gedcomNtB5_8AnselErrNtNtCsalHcryTVEJB_4core3fmt7Display3fmt
FNDA:0,_RNvMs1_CscmLdlanZRvV_6gedcomNtB5_8AnselErr6offset
FNDA:0,_RNvCscmLdlanZRvV_6gedcom12decode_ansel
FNDA:0,_RNvXsR_CscmLdlanZRvV_6gedcomNtB5_14EncodingReasonNtNtCsalHcryTVEJB_4core3fmt7Display3fmt
FNDA:0,_RNvXsT_CscmLdlanZRvV_6gedcomNtB5_14EncodingReasonNtNtCsiy8hXAumaA3_6miette8protocol10Diagnostic4code
FNDA:0,_RNvXsT_CscmLdlanZRvV_6gedcomNtB5_14EncodingReasonNtNtCsiy8hXAumaA3_6miette8protocol10Diagnostic8severity
FNDA:0,_RNvXsT_CscmLdlanZRvV_6gedcomNtB5_14EncodingReasonNtNtCsiy8hXAumaA3_6miette8protocol10Diagnostic6labels
FNDA:0,_RNCNvXsT_CscmLdlanZRvV_6gedcomNtB7_14EncodingReasonNtNtCsiy8hXAumaA3_6miette8protocol10Diagnostic6labels0B7_
FNDA:0,_RNCNvXsT_CscmLdlanZRvV_6gedcomNtB7_14EncodingReasonNtNtCsiy8hXAumaA3_6miette8protocol10Diagnostic6labelss_0B7_
FNDA:0,_RNvXsW_CscmLdlanZRvV_6gedcomNtB5_13EncodingErrorNtNtCsalHcryTVEJB_4core5error5Error6source
FNDA:0,_RNvXsX_CscmLdlanZRvV_6gedcomNtB5_13EncodingErrorNtNtCsalHcryTVEJB_4core3fmt7Display3fmt
FNDA:0,_RNvXsZ_CscmLdlanZRvV_6gedcomNtB5_13EncodingErrorNtNtCsiy8hXAumaA3_6miette8protocol10Diagnostic4code
FNDA:0,_RNvXsZ_CscmLdlanZRvV_6gedcomNtB5_13EncodingErrorNtNtCsiy8hXAumaA3_6miette8protocol10Diagnostic4help
FNDA:0,_RNvXsZ_CscmLdlanZRvV_6gedcomNtB5_13EncodingErrorNtNtCsiy8hXAumaA3_6miette8protocol10Diagnostic6labels
FNDA:0,_RNCNvXsZ_CscmLdlanZRvV_6gedcomNtB7_13EncodingErrorNtNtCsiy8hXAumaA3_6miette8protocol10Diagnostic6labels0B7_
FNDA:0,_RNCNvXsZ_CscmLdlanZRvV_6gedcomNtB7_13EncodingErrorNtNtCsiy8hXAumaA3_6miette8protocol10Diagnostic6labelss_0B7_
FNDA:0,_RNvXsZ_CscmLdlanZRvV_6gedcomNtB5_13EncodingErrorNtNtCsiy8hXAumaA3_6miette8protocol10Diagnostic7related
FNDA:0,_RNCNvXsZ_CscmLdlanZRvV_6gedcomNtB7_13EncodingErrorNtNtCsiy8hXAumaA3_6miette8protocol10Diagnostic7related0B7_
FNDA:0,_RNvCscmLdlanZRvV_6gedcom20detect_file_encoding
FNDA:0,_RNvCscmLdlanZRvV_6gedcom20encoding_from_gedcom
FNDA:0,_RNvXs2_CscmLdlanZRvV_6gedcomeNtB5_12GEDCOMSource6splitn
FNDA:0,_RNvXs2_CscmLdlanZRvV_6gedcomeNtB5_12GEDCOMSource5lines
FNDA:0,_RNCNvXs2_CscmLdlanZRvV_6gedcomeNtB7_12GEDCOMSource5lines0B7_
FNDA:0,_RNCNvXs2_CscmLdlanZRvV_6gedcomeNtB7_12GEDCOMSource5liness_0B7_
FNDA:0,_RNvXs2_CscmLdlanZRvV_6gedcomeNtB5_12GEDCOMSource7span_of
FNDA:0,_RNvXs2_CscmLdlanZRvV_6gedcomeNtB5_12GEDCOMSource11starts_with
FNDA:0,_RNvXs2_CscmLdlanZRvV_6gedcomeNtB5_12GEDCOMSource9ends_with
FNDA:0,_RNvXs2_CscmLdlanZRvV_6gedcomeNtB5_12GEDCOMSource8is_empty
FNDA:0,_RNvXs2_CscmLdlanZRvV_6gedcomeNtB5_12GEDCOMSource10slice_from
FNDA:0,_RNvXs3_CscmLdlanZRvV_6gedcomShNtB5_12GEDCOMSource6splitn
FNDA:0,_RNCNvXs3_CscmLdlanZRvV_6gedcomShNtB7_12GEDCOMSource6splitn0B7_
FNDA:0,_RNvXs3_CscmLdlanZRvV_6gedcomShNtB5_12GEDCOMSource5lines
FNDA:0,_RNCNvXs3_CscmLdlanZRvV_6gedcomShNtB7_12GEDCOMSource5lines0B7_
FNDA:0,_RNCNvXs3_CscmLdlanZRvV_6gedcomShNtB7_12GEDCOMSource5liness_0B7_
FNDA:0,_RNvXs3_CscmLdlanZRvV_6gedcomShNtB5_12GEDCOMSource7span_of
FNDA:0,_RNvXs3_CscmLdlanZRvV_6gedcomShNtB5_12GEDCOMSource11starts_with
FNDA:0,_RNvXs3_CscmLdlanZRvV_6gedcomShNtB5_12GEDCOMSource9ends_with
FNDA:0,_RNvXs3_CscmLdlanZRvV_6gedcomShNtB5_12GEDCOMSource8is_empty
FNDA:0,_RNvXs3_CscmLdlanZRvV_6gedcomShNtB5_12GEDCOMSource10slice_from
FNDA:0,_RNvXs4_CscmLdlanZRvV_6gedcomNtB5_12ParseOptionsNtNtCsalHcryTVEJB_4core7default7Default7default
FNDA:0,_RNvCscmLdlanZRvV_6gedcom13iterate_lines
FNDA:0,_RINvCscmLdlanZRvV_6gedcom17iterate_lines_rawpEB2_
FNDA:0,_RNCINvCscmLdlanZRvV_6gedcom17iterate_lines_rawpE0B4_
FNDA:0,_RNCINvCscmLdlanZRvV_6gedcom17iterate_lines_rawpEs_0B4_
FNDA:0,_RNCNCINvCscmLdlanZRvV_6gedcom17iterate_lines_rawpEs_00B6_
FNDA:0,_RNCNCNCINvCscmLdlanZRvV_6gedcom17iterate_lines_rawpEs_000B8_
FNDA:0,_RNCNCNCINvCscmLdlanZRvV_6gedcom17iterate_lines_rawpEs_00s_0B8_
FNDA:0,_RNCNCNCINvCscmLdlanZRvV_6gedcom17iterate_lines_rawpEs_00s0_0B8_
FNDA:0,_RNCNCNCINvCscmLdlanZRvV_6gedcom17iterate_lines_rawpEs_00s1_0B8_
FNDA:0,_RNCNCNCINvCscmLdlanZRvV_6gedcom17iterate_lines_rawpEs_00s2_0B8_
FNDA:0,_RNCNCNCINvCscmLdlanZRvV_6gedcom17iterate_lines_rawpEs_00s3_0B8_
FNDA:0,_RNCNCNCINvCscmLdlanZRvV_6gedcom17iterate_lines_rawpEs_00s4_0B8_
FNDA:0,_RNvMs5_CscmLdlanZRvV_6gedcomINtB5_11ParseResultpNtNtCsalHcryTVEJB_4core7convert10InfallibleE10only_earlyB5_
FNDA:0,_RNvMs6_CscmLdlanZRvV_6gedcomINtB5_11ParseResultNtNtCsalHcryTVEJB_4core7convert10InfalliblepE13only_completeB5_
FNDA:0,_RNvXs7_CscmLdlanZRvV_6gedcomNtB5_3TagINtNtCsalHcryTVEJB_4core7convert7TryFromReE8try_from
FNDA:0,_RNvMs8_CscmLdlanZRvV_6gedcomINtB5_9CollectorpE3newB5_
FNDA:0,_RNvXINICscmLdlanZRvV_6gedcoms9_0pEINtB5_9CollectorpEINtB5_4SinkpE7consumeB5_
FNDA:0,_RNvXINICscmLdlanZRvV_6gedcoms9_0pEINtB5_9CollectorpEINtB5_4SinkpE8completeB5_
FNDA:0,_RNvXINICscmLdlanZRvV_6gedcomsa_0pENtB5_8NullSinkINtB5_4SinkpE7consumeB5_
FNDA:0,_RNvXINICscmLdlanZRvV_6gedcomsa_0pENtB5_8NullSinkINtB5_4SinkpE8completeB5_
FNDA:0,_RNvMsb_CscmLdlanZRvV_6gedcomINtB5_7CounterpE3newB5_
FNDA:0,_RNvXINICscmLdlanZRvV_6gedcomsc_0ppEINtB5_7CounterpEINtB5_4SinkpE7consumeB5_
FNDA:0,_RNvXINICscmLdlanZRvV_6gedcomsc_0ppEINtB5_7CounterpEINtB5_4SinkpE8completeB5_
FNDA:0,_RNvMsd_CscmLdlanZRvV_6gedcomINtB5_7SourcedpE6as_refB5_
FNDA:0,_RINvMsd_CscmLdlanZRvV_6gedcomINtB6_7SourcedpE3mapppEB6_
FNDA:0,_RNvXINICscmLdlanZRvV_6gedcomse_0pEINtB5_7SourcedpENtNtNtCsalHcryTVEJB_4core3ops5deref5Deref5derefB5_
FNDA:0,_RINvMsf_CscmLdlanZRvV_6gedcomINtB6_9RawRecordpE12get_data_optpppEB6_
FNDA:0,_RNCINvMsf_CscmLdlanZRvV_6gedcomINtB8_9RawRecordpE12get_data_optpppE0B8_
FNDA:0,_RINvMsf_CscmLdlanZRvV_6gedcomINtB6_9RawRecordpE8get_datapppEB6_
FNDA:0,_RNCINvMsf_CscmLdlanZRvV_6gedcomINtB8_9RawRecordpE8get_datapppE0B8_
FNDA:0,_RNvMsf_CscmLdlanZRvV_6gedcomINtB5_9RawRecordpE17get_subrecord_optB5_
FNDA:0,_RNCNvMsf_CscmLdlanZRvV_6gedcomINtB7_9RawRecordpE17get_subrecord_opt0B7_
FNDA:0,_RNvMsf_CscmLdlanZRvV_6gedcomINtB5_9RawRecordpE13get_subrecordB5_
FNDA:0,_RNCNvMsf_CscmLdlanZRvV_6gedcomINtB7_9RawRecordpE13get_subrecord0B7_
FNDA:0,_RNvMsf_CscmLdlanZRvV_6gedcomINtB5_9RawRecordpE18get_subrecords_optB5_
FNDA:0,_RNCNvMsf_CscmLdlanZRvV_6gedcomINtB7_9RawRecordpE18get_subrecords_opt0B7_
FNDA:0,_RNvMsf_CscmLdlanZRvV_6gedcomINtB5_9RawRecordpE14get_subrecordsB5_
FNDA:0,_RNCNvMsf_CscmLdlanZRvV_6gedcomINtB7_9RawRecordpE14get_subrecords0B7_
FNDA:0,_RNCNvMsf_CscmLdlanZRvV_6gedcomINtB7_9RawRecordpE14get_subrecordss_0B7_
FNDA:0,_RNvMsg_CscmLdlanZRvV_6gedcomINtB5_7SourcedINtB5_9RawRecordpEE13get_subrecordB5_
FNDA:0,_RNvMsg_CscmLdlanZRvV_6gedcomINtB5_7SourcedINtB5_9RawRecordpEE14get_subrecordsB5_
FNDA:0,_RINvCscmLdlanZRvV_6gedcom10build_treepEB2_
FNDA:0,_RNvMNvCscmLdlanZRvV_6gedcom10build_treeINtB2_1IpE9pop_levelB4_
FNDA:0,_RNvMNvCscmLdlanZRvV_6gedcom10build_treeINtB2_1IpE7consumeB4_
FNDA:0,_RNvXININvCscmLdlanZRvV_6gedcom10build_trees_0pEINtB5_1IpENtNtNtNtCsalHcryTVEJB_4core4iter6traits8iterator8Iterator4nextB7_
FNDA:0,_RNvMsh_CscmLdlanZRvV_6gedcomINtB5_9RawRecordpE3newB5_
FNDA:0,_RNvMsi_CscmLdlanZRvV_6gedcomINtB5_17RecordTreeBuilderpppE3newB5_
FNDA:0,_RNvMsi_CscmLdlanZRvV_6gedcomINtB5_17RecordTreeBuilderpppE9pop_childB5_
FNDA:0,_RNvMsi_CscmLdlanZRvV_6gedcomINtB5_17RecordTreeBuilderpppE9pop_belowB5_
FNDA:0,_RNvXINICscmLdlanZRvV_6gedcomsj_0pppEINtB5_17RecordTreeBuilderpppEINtB5_4SinkTINtB5_7SourcedjEIB1e_INtB5_7RawLinepEEEE7consumeB5_
FNDA:0,_RNvXINICscmLdlanZRvV_6gedcomsj_0pppEINtB5_17RecordTreeBuilderpppEINtB5_4SinkTINtB5_7SourcedjEIB1e_INtB5_7RawLinepEEEE8completeB5_
FNDA:0,_RNvCscmLdlanZRvV_6gedcom15validate_syntax
FNDA:0,_RNCNvCscmLdlanZRvV_6gedcom15validate_syntax0B3_
FNDA:0,_RNvMsk_CscmLdlanZRvV_6gedcomNtB5_16FileFormatParser3new
FNDA:0,_RNvXs17_CscmLdlanZRvV_6gedcomNtB6_11SchemaErrorNtNtCsalHcryTVEJB_4core5error5Error6source
FNDA:0,_RNvXs18_CscmLdlanZRvV_6gedcomNtB6_11SchemaErrorNtNtCsalHcryTVEJB_4core3fmt7Display3fmt
FNDA:0,_RNvXs19_CscmLdlanZRvV_6gedcomNtB6_11SchemaErrorINtNtCsalHcryTVEJB_4core7convert4FromNtNtB6_9encodings9DataErrorE4from
FNDA:0,_RNvXs1b_CscmLdlanZRvV_6gedcomNtB6_11SchemaErrorNtNtCsiy8hXAumaA3_6miette8protocol10Diagnostic4code
FNDA:0,_RNvXs1b_CscmLdlanZRvV_6gedcomNtB6_11SchemaErrorNtNtCsiy8hXAumaA3_6miette8protocol10Diagnostic4help
FNDA:0,_RNvXs1b_CscmLdlanZRvV_6gedcomNtB6_11SchemaErrorNtNtCsiy8hXAumaA3_6miette8protocol10Diagnostic8severity
FNDA:0,_RNvXs1b_CscmLdlanZRvV_6gedcomNtB6_11SchemaErrorNtNtCsiy8hXAumaA3_6miette8protocol10Diagnostic6labels
FNDA:0,_RNCNvXs1b_CscmLdlanZRvV_6gedcomNtB8_11SchemaErrorNtNtCsiy8hXAumaA3_6miette8protocol10Diagnostic6labels0B8_
FNDA:0,_RNCNvXs1b_CscmLdlanZRvV_6gedcomNtB8_11SchemaErrorNtNtCsiy8hXAumaA3_6miette8protocol10Diagnostic6labelss_0B8_
FNDA:0,_RNCNvXs1b_CscmLdlanZRvV_6gedcomNtB8_11SchemaErrorNtNtCsiy8hXAumaA3_6miette8protocol10Diagnostic6labelss0_0B8_
FNDA:0,_RNCNvXs1b_CscmLdlanZRvV_6gedcomNtB8_11SchemaErrorNtNtCsiy8hXAumaA3_6miette8protocol10Diagnostic6labelss1_0B8_
FNDA:0,_RNCNvXs1b_CscmLdlanZRvV_6gedcomNtB8_11SchemaErrorNtNtCsiy8hXAumaA3_6miette8protocol10Diagnostic6labelss2_0B8_
FNDA:0,_RNCNvXs1b_CscmLdlanZRvV_6gedcomNtB8_11SchemaErrorNtNtCsiy8hXAumaA3_6miette8protocol10Diagnostic6labelss3_0B8_
FNDA:0,_RNCNvXs1b_CscmLdlanZRvV_6gedcomNtB8_11SchemaErrorNtNtCsiy8hXAumaA3_6miette8protocol10Diagnostic6labelss4_0B8_
FNDA:0,_RNvXs1b_CscmLdlanZRvV_6gedcomNtB6_11SchemaErrorNtNtCsiy8hXAumaA3_6miette8protocol10Diagnostic11source_code
FNDA:0,_RNvXs1b_CscmLdlanZRvV_6gedcomNtB6_11SchemaErrorNtNtCsiy8hXAumaA3_6miette8protocol10Diagnostic7related
FNDA:0,_RNvXs1b_CscmLdlanZRvV_6gedcomNtB6_11SchemaErrorNtNtCsiy8hXAumaA3_6miette8protocol10Diagnostic3url
FNDA:0,_RNvXs1b_CscmLdlanZRvV_6gedcomNtB6_11SchemaErrorNtNtCsiy8hXAumaA3_6miette8protocol10Diagnostic17diagnostic_source
FNDA:27,_RINvCs94xiAUca6ke_6gedcom10build_treeINtNtNtCs5hBMTNmLnRE_5alloc3vec9into_iter8IntoIterTINtB2_7SourcedjEIB1p_INtB2_7RawLineeEEEEECsitNhyB3gKic_5tests
FNDA:8851,_RNCINvCs94xiAUca6ke_6gedcom17iterate_lines_raweE0CsitNhyB3gKic_5tests
FNDA:15531,_RNCINvCs94xiAUca6ke_6gedcom17iterate_lines_raweEs_0CsitNhyB3gKic_5tests
FNDA:9933,_RNCNCINvCs94xiAUca6ke_6gedcom17iterate_lines_raweEs_00CsitNhyB3gKic_5tests
FNDA:0,_RNCNCNCINvCs94xiAUca6ke_6gedcom17iterate_lines_raweEs_000CsitNhyB3gKic_5tests
FNDA:9931,_RNCNCNCINvCs94xiAUca6ke_6gedcom17iterate_lines_raweEs_00s0_0CsitNhyB3gKic_5tests
FNDA:2,_RNCNCNCINvCs94xiAUca6ke_6gedcom17iterate_lines_raweEs_00s1_0CsitNhyB3gKic_5tests
FNDA:0,_RNCNCNCINvCs94xiAUca6ke_6gedcom17iterate_lines_raweEs_00s2_0CsitNhyB3gKic_5tests
FNDA:39426,_RNCNCNCINvCs94xiAUca6ke_6gedcom17iterate_lines_raweEs_00s3_0CsitNhyB3gKic_5tests
FNDA:8579,_RNCNCNCINvCs94xiAUca6ke_6gedcom17iterate_lines_raweEs_00s4_0CsitNhyB3gKic_5tests
FNDA:1,_RNCNCNCINvCs94xiAUca6ke_6gedcom17iterate_lines_raweEs_00s_0CsitNhyB3gKic_5tests
FNDA:309979,_RNCNvXs2_Cs94xiAUca6ke_6gedcomeNtB7_12GEDCOMSource5lines0CsitNhyB3gKic_5tests
FNDA:15531,_RNCNvXs2_Cs94xiAUca6ke_6gedcomeNtB7_12GEDCOMSource5liness_0CsitNhyB3gKic_5tests
FNDA:9928,_RNvMNvCs94xiAUca6ke_6gedcom10build_treeINtB2_1IINtNtNtCs5hBMTNmLnRE_5alloc3vec9into_iter8IntoIterTINtB4_7SourcedjEIB1z_INtB4_7RawLineeEEEEE7consumeCsitNhyB3gKic_5tests
FNDA:9978,_RNvMNvCs94xiAUca6ke_6gedcom10build_treeINtB2_1IINtNtNtCs5hBMTNmLnRE_5alloc3vec9into_iter8IntoIterTINtB4_7SourcedjEIB1z_INtB4_7RawLineeEEEEE9pop_levelCsitNhyB3gKic_5tests
FNDA:9926,_RNvMsh_Cs94xiAUca6ke_6gedcomNtB5_9RawRecord3newCsitNhyB3gKic_5tests
FNDA:344,_RNvXs_NvCs94xiAUca6ke_6gedcom10build_treeINtB4_1IINtNtNtCs5hBMTNmLnRE_5alloc3vec9into_iter8IntoIterTINtB6_7SourcedjEIB1B_INtB6_7RawLineeEEEEENtNtNtNtCsalHcryTVEJB_4core4iter6traits8iterator8Iterator4nextCsitNhyB3gKic_5tests
FNDA:29775,_RNvXse_Cs94xiAUca6ke_6gedcomINtB5_7SourcedINtB5_7RawLineeEENtNtNtCsalHcryTVEJB_4core3ops5deref5Deref5derefCsitNhyB3gKic_5tests
FNDA:9925,_RNvXse_Cs94xiAUca6ke_6gedcomINtB5_7SourcedRNtNtCsbcyttY3WPus_5ascii9ascii_str8AsciiStrENtNtNtCsalHcryTVEJB_4core3ops5deref5Deref5derefCsitNhyB3gKic_5tests
FNDA:0,_RNvXCs94xiAUca6ke_6gedcomNtB2_11GedcomErrorINtNtCsalHcryTVEJB_4core7convert4FromNtBI_10InfallibleE4from
FNDA:19,_RNvXs_Cs94xiAUca6ke_6gedcomNtB4_17SupportedEncodingNtNtCsalHcryTVEJB_4core3fmt7Display3fmt
FNDA:37,_RNvMs0_Cs94xiAUca6ke_6gedcomNtB5_16DetectedEncoding6decode
FNDA:3,_RNvMs1_Cs94xiAUca6ke_6gedcomNtB5_8AnselErr6offset
FNDA:8,_RNvCs94xiAUca6ke_6gedcom12decode_ansel
FNDA:54,_RNvCs94xiAUca6ke_6gedcom20detect_file_encoding
FNDA:40,_RNvCs94xiAUca6ke_6gedcom20encoding_from_gedcom
FNDA:15531,_RNvXs2_Cs94xiAUca6ke_6gedcomeNtB5_12GEDCOMSource6splitn
FNDA:31,_RNvXs2_Cs94xiAUca6ke_6gedcomeNtB5_12GEDCOMSource5lines
FNDA:47224,_RNvXs2_Cs94xiAUca6ke_6gedcomeNtB5_12GEDCOMSource7span_of
FNDA:9931,_RNvXs2_Cs94xiAUca6ke_6gedcomeNtB5_12GEDCOMSource11starts_with
FNDA:31335,_RNvXs2_Cs94xiAUca6ke_6gedcomeNtB5_12GEDCOMSource9ends_with
FNDA:15531,_RNvXs2_Cs94xiAUca6ke_6gedcomeNtB5_12GEDCOMSource8is_empty
FNDA:8579,_RNvXs2_Cs94xiAUca6ke_6gedcomeNtB5_12GEDCOMSource10slice_from
FNDA:2603,_RNvXs3_Cs94xiAUca6ke_6gedcomShNtB5_12GEDCOMSource6splitn
FNDA:41,_RNvXs3_Cs94xiAUca6ke_6gedcomShNtB5_12GEDCOMSource5lines
FNDA:6410,_RNvXs3_Cs94xiAUca6ke_6gedcomShNtB5_12GEDCOMSource7span_of
FNDA:1351,_RNvXs3_Cs94xiAUca6ke_6gedcomShNtB5_12GEDCOMSource11starts_with
FNDA:5222,_RNvXs3_Cs94xiAUca6ke_6gedcomShNtB5_12GEDCOMSource9ends_with
FNDA:2603,_RNvXs3_Cs94xiAUca6ke_6gedcomShNtB5_12GEDCOMSource8is_empty
FNDA:1170,_RNvXs3_Cs94xiAUca6ke_6gedcomShNtB5_12GEDCOMSource10slice_from
FNDA:0,_RNvXs4_Cs94xiAUca6ke_6gedcomNtB5_12ParseOptionsNtNtCsalHcryTVEJB_4core7default7Default7default
FNDA:38,_RNvCs94xiAUca6ke_6gedcom13iterate_lines
FNDA:0,_RNvXs7_Cs94xiAUca6ke_6gedcomNtB5_3TagINtNtCsalHcryTVEJB_4core7convert7TryFromReE8try_from
FNDA:1,_RNvCs94xiAUca6ke_6gedcom15validate_syntax
FNDA:0,_RNvXsl_Cs94xiAUca6ke_6gedcomNtB5_11GedcomErrorNtNtCsalHcryTVEJB_4core5error5Error6source
FNDA:0,_RNvXsm_Cs94xiAUca6ke_6gedcomNtB5_11GedcomErrorNtNtCsalHcryTVEJB_4core3fmt7Display3fmt
FNDA:0,_RNvXsn_Cs94xiAUca6ke_6gedcomNtB5_11GedcomErrorINtNtCsalHcryTVEJB_4core7convert4FromNtB5_15LineSyntaxErrorE4from
FNDA:0,_RNvXso_Cs94xiAUca6ke_6gedcomNtB5_11GedcomErrorINtNtCsalHcryTVEJB_4core7convert4FromNtB5_18LineStructureErrorE4from
FNDA:0,_RNvXsp_Cs94xiAUca6ke_6gedcomNtB5_11GedcomErrorINtNtCsalHcryTVEJB_4core7convert4FromNtB5_11SchemaErrorE4from
FNDA:0,_RNvXsr_Cs94xiAUca6ke_6gedcomNtB5_11GedcomErrorNtNtCsiy8hXAumaA3_6miette8protocol10Diagnostic4code
FNDA:0,_RNvXsr_Cs94xiAUca6ke_6gedcomNtB5_11GedcomErrorNtNtCsiy8hXAumaA3_6miette8protocol10Diagnostic4help
FNDA:0,_RNvXsr_Cs94xiAUca6ke_6gedcomNtB5_11GedcomErrorNtNtCsiy8hXAumaA3_6miette8protocol10Diagnostic8severity
FNDA:0,_RNvXsr_Cs94xiAUca6ke_6gedcomNtB5_11GedcomErrorNtNtCsiy8hXAumaA3_6miette8protocol10Diagnostic6labels
FNDA:0,_RNvXsr_Cs94xiAUca6ke_6gedcomNtB5_11GedcomErrorNtNtCsiy8hXAumaA3_6miette8protocol10Diagnostic11source_code
FNDA:0,_RNvXsr_Cs94xiAUca6ke_6gedcomNtB5_11GedcomErrorNtNtCsiy8hXAumaA3_6miette8protocol10Diagnostic7related
FNDA:0,_RNvXsr_Cs94xiAUca6ke_6gedcomNtB5_11GedcomErrorNtNtCsiy8hXAumaA3_6miette8protocol10Diagnostic3url
FNDA:0,_RNvXsr_Cs94xiAUca6ke_6gedcomNtB5_11GedcomErrorNtNtCsiy8hXAumaA3_6miette8protocol10Diagnostic17diagnostic_source
FNDA:0,_RNvXst_Cs94xiAUca6ke_6gedcomNtB5_15ValidationErrorNtNtCsalHcryTVEJB_4core3fmt7Display3fmt
FNDA:0,_RNvXsv_Cs94xiAUca6ke_6gedcomNtB5_15ValidationErrorNtNtCsiy8hXAumaA3_6miette8protocol10Diagnostic7related
FNDA:4,_RNvXsw_Cs94xiAUca6ke_6gedcomNtB5_15LineSyntaxErrorNtNtCsalHcryTVEJB_4core5error5Error6source
FNDA:4,_RNvXsx_Cs94xiAUca6ke_6gedcomNtB5_15LineSyntaxErrorNtNtCsalHcryTVEJB_4core3fmt7Display3fmt
FNDA:4,_RNvXsz_Cs94xiAUca6ke_6gedcomNtB5_15LineSyntaxErrorNtNtCsiy8hXAumaA3_6miette8protocol10Diagnostic4code
FNDA:4,_RNvXsz_Cs94xiAUca6ke_6gedcomNtB5_15LineSyntaxErrorNtNtCsiy8hXAumaA3_6miette8protocol10Diagnostic4help
FNDA:4,_RNvXsz_Cs94xiAUca6ke_6gedcomNtB5_15LineSyntaxErrorNtNtCsiy8hXAumaA3_6miette8protocol10Diagnostic6labels
FNDA:2,_RNvXsB_Cs94xiAUca6ke_6gedcomNtB5_18LineStructureErrorNtNtCsalHcryTVEJB_4core3fmt7Display3fmt
FNDA:2,_RNvXsD_Cs94xiAUca6ke_6gedcomNtB5_18LineStructureErrorNtNtCsiy8hXAumaA3_6miette8protocol10Diagnostic4code
FNDA:2,_RNvXsD_Cs94xiAUca6ke_6gedcomNtB5_18LineStructureErrorNtNtCsiy8hXAumaA3_6miette8protocol10Diagnostic6labels
FNDA:3,_RNvXsM_Cs94xiAUca6ke_6gedcomNtB5_8AnselErrNtNtCsalHcryTVEJB_4core3fmt7Display3fmt
FNDA:19,_RNvXsR_Cs94xiAUca6ke_6gedcomNtB5_14EncodingReasonNtNtCsalHcryTVEJB_4core3fmt7Display3fmt
FNDA:6,_RNvXsT_Cs94xiAUca6ke_6gedcomNtB5_14EncodingReasonNtNtCsiy8hXAumaA3_6miette8protocol10Diagnostic4code
FNDA:18,_RNvXsT_Cs94xiAUca6ke_6gedcomNtB5_14EncodingReasonNtNtCsiy8hXAumaA3_6miette8protocol10Diagnostic8severity
FNDA:6,_RNvXsT_Cs94xiAUca6ke_6gedcomNtB5_14EncodingReasonNtNtCsiy8hXAumaA3_6miette8protocol10Diagnostic6labels
FNDA:7,_RNvXsW_Cs94xiAUca6ke_6gedcomNtB5_13EncodingErrorNtNtCsalHcryTVEJB_4core5error5Error6source
FNDA:10,_RNvXsX_Cs94xiAUca6ke_6gedcomNtB5_13EncodingErrorNtNtCsalHcryTVEJB_4core3fmt7Display3fmt
FNDA:7,_RNvXsZ_Cs94xiAUca6ke_6gedcomNtB5_13EncodingErrorNtNtCsiy8hXAumaA3_6miette8protocol10Diagnostic4code
FNDA:7,_RNvXsZ_Cs94xiAUca6ke_6gedcomNtB5_13EncodingErrorNtNtCsiy8hXAumaA3_6miette8protocol10Diagnostic4help
FNDA:7,_RNvXsZ_Cs94xiAUca6ke_6gedcomNtB5_13EncodingErrorNtNtCsiy8hXAumaA3_6miette8protocol10Diagnostic6labels
FNDA:7,_RNvXsZ_Cs94xiAUca6ke_6gedcomNtB5_13EncodingErrorNtNtCsiy8hXAumaA3_6miette8protocol10Diagnostic7related
FNDA:0,_RNvXs17_Cs94xiAUca6ke_6gedcomNtB6_11SchemaErrorNtNtCsalHcryTVEJB_4core5error5Error6source
FNDA:0,_RNvXs18_Cs94xiAUca6ke_6gedcomNtB6_11SchemaErrorNtNtCsalHcryTVEJB_4core3fmt7Display3fmt
FNDA:0,_RNvXs19_Cs94xiAUca6ke_6gedcomNtB6_11SchemaErrorINtNtCsalHcryTVEJB_4core7convert4FromNtNtB6_9encodings9DataErrorE4from
FNDA:0,_RNvXs1b_Cs94xiAUca6ke_6gedcomNtB6_11SchemaErrorNtNtCsiy8hXAumaA3_6miette8protocol10Diagnostic4code
FNDA:0,_RNvXs1b_Cs94xiAUca6ke_6gedcomNtB6_11SchemaErrorNtNtCsiy8hXAumaA3_6miette8protocol10Diagnostic4help
FNDA:0,_RNvXs1b_Cs94xiAUca6ke_6gedcomNtB6_11SchemaErrorNtNtCsiy8hXAumaA3_6miette8protocol10Diagnostic8severity
FNDA:0,_RNvXs1b_Cs94xiAUca6ke_6gedcomNtB6_11SchemaErrorNtNtCsiy8hXAumaA3_6miette8protocol10Diagnostic6labels
FNDA:0,_RNvXs1b_Cs94xiAUca6ke_6gedcomNtB6_11SchemaErrorNtNtCsiy8hXAumaA3_6miette8protocol10Diagnostic11source_code
FNDA:0,_RNvXs1b_Cs94xiAUca6ke_6gedcomNtB6_11SchemaErrorNtNtCsiy8hXAumaA3_6miette8protocol10Diagnostic7related
FNDA:0,_RNvXs1b_Cs94xiAUca6ke_6gedcomNtB6_11SchemaErrorNtNtCsiy8hXAumaA3_6miette8protocol10Diagnostic3url
FNDA:0,_RNvXs1b_Cs94xiAUca6ke_6gedcomNtB6_11SchemaErrorNtNtCsiy8hXAumaA3_6miette8protocol10Diagnostic17diagnostic_source
FNDA:1,_RNCNvMs0_Cs94xiAUca6ke_6gedcomNtB7_16DetectedEncoding6decode0B7_
FNDA:3,_RNCNvMs0_Cs94xiAUca6ke_6gedcomNtB7_16DetectedEncoding6decodes_0B7_
FNDA:2,_RNCNvMs0_Cs94xiAUca6ke_6gedcomNtB7_16DetectedEncoding6decodes0_0B7_
FNDA:15314,_RNCNvXs3_Cs94xiAUca6ke_6gedcomShNtB7_12GEDCOMSource6splitn0B7_
FNDA:37021,_RNCNvXs3_Cs94xiAUca6ke_6gedcomShNtB7_12GEDCOMSource5lines0B7_
FNDA:2603,_RNCNvXs3_Cs94xiAUca6ke_6gedcomShNtB7_12GEDCOMSource5liness_0B7_
FNDA:41,_RINvCs94xiAUca6ke_6gedcom17iterate_lines_rawShEB2_
FNDA:31,_RINvCs94xiAUca6ke_6gedcom17iterate_lines_raweEB2_
FNDA:1186,_RNCINvCs94xiAUca6ke_6gedcom17iterate_lines_rawShE0B4_
FNDA:2603,_RNCINvCs94xiAUca6ke_6gedcom17iterate_lines_rawShEs_0B4_
FNDA:1352,_RNCNCINvCs94xiAUca6ke_6gedcom17iterate_lines_rawShEs_00B6_
FNDA:0,_RNCNCNCINvCs94xiAUca6ke_6gedcom17iterate_lines_rawShEs_000B8_
FNDA:0,_RNCNCNCINvCs94xiAUca6ke_6gedcom17iterate_lines_rawShEs_00s_0B8_
FNDA:1351,_RNCNCNCINvCs94xiAUca6ke_6gedcom17iterate_lines_rawShEs_00s0_0B8_
FNDA:2,_RNCNCNCINvCs94xiAUca6ke_6gedcom17iterate_lines_rawShEs_00s1_0B8_
FNDA:0,_RNCNCNCINvCs94xiAUca6ke_6gedcom17iterate_lines_rawShEs_00s2_0B8_
FNDA:5401,_RNCNCNCINvCs94xiAUca6ke_6gedcom17iterate_lines_rawShEs_00s3_0B8_
FNDA:1170,_RNCNCNCINvCs94xiAUca6ke_6gedcom17iterate_lines_rawShEs_00s4_0B8_
FNDA:192,_RNvXse_Cs94xiAUca6ke_6gedcomINtB5_7SourcedINtB5_7RawLineShEENtNtNtCsalHcryTVEJB_4core3ops5deref5Deref5derefB5_
FNDA:27,_RNvXse_Cs94xiAUca6ke_6gedcomINtB5_7SourcedRShENtNtNtCsalHcryTVEJB_4core3ops5deref5Deref5derefB5_
FNDA:1159,_RNCNvCs94xiAUca6ke_6gedcom15validate_syntax0B3_
FNDA:0,_RNCNvXsv_Cs94xiAUca6ke_6gedcomNtB7_15ValidationErrorNtNtCsiy8hXAumaA3_6miette8protocol10Diagnostic7related0B7_
FNDA:1,_RNCNvXsz_Cs94xiAUca6ke_6gedcomNtB7_15LineSyntaxErrorNtNtCsiy8hXAumaA3_6miette8protocol10Diagnostic6labels0B7_
FNDA:1,_RNCNvXsz_Cs94xiAUca6ke_6gedcomNtB7_15LineSyntaxErrorNtNtCsiy8hXAumaA3_6miette8protocol10Diagnostic6labelss_0B7_
FNDA:2,_RNCNvXsz_Cs94xiAUca6ke_6gedcomNtB7_15LineSyntaxErrorNtNtCsiy8hXAumaA3_6miette8protocol10Diagnostic6labelss0_0B7_
FNDA:0,_RNCNvXsz_Cs94xiAUca6ke_6gedcomNtB7_15LineSyntaxErrorNtNtCsiy8hXAumaA3_6miette8protocol10Diagnostic6labelss1_0B7_
FNDA:2,_RNCNvXsD_Cs94xiAUca6ke_6gedcomNtB7_18LineStructureErrorNtNtCsiy8hXAumaA3_6miette8protocol10Diagnostic6labels0B7_
FNDA:5,_RNCNvXsT_Cs94xiAUca6ke_6gedcomNtB7_14EncodingReasonNtNtCsiy8hXAumaA3_6miette8protocol10Diagnostic6labels0B7_
FNDA:0,_RNCNvXsT_Cs94xiAUca6ke_6gedcomNtB7_14EncodingReasonNtNtCsiy8hXAumaA3_6miette8protocol10Diagnostic6labelss_0B7_
FNDA:6,_RNCNvXsZ_Cs94xiAUca6ke_6gedcomNtB7_13EncodingErrorNtNtCsiy8hXAumaA3_6miette8protocol10Diagnostic7related0B7_
FNDA:1,_RNCNvXsZ_Cs94xiAUca6ke_6gedcomNtB7_13EncodingErrorNtNtCsiy8hXAumaA3_6miette8protocol10Diagnostic6labels0B7_
FNDA:6,_RNCNvXsZ_Cs94xiAUca6ke_6gedcomNtB7_13EncodingErrorNtNtCsiy8hXAumaA3_6miette8protocol10Diagnostic6labelss_0B7_
FNDA:0,_RNCNvXs1b_Cs94xiAUca6ke_6gedcomNtB8_11SchemaErrorNtNtCsiy8hXAumaA3_6miette8protocol10Diagnostic6labels0B8_
FNDA:0,_RNCNvXs1b_Cs94xiAUca6ke_6gedcomNtB8_11SchemaErrorNtNtCsiy8hXAumaA3_6miette8protocol10Diagnostic6labelss_0B8_
FNDA:0,_RNCNvXs1b_Cs94xiAUca6ke_6gedcomNtB8_11SchemaErrorNtNtCsiy8hXAumaA3_6miette8protocol10Diagnostic6labelss0_0B8_
FNDA:0,_RNCNvXs1b_Cs94xiAUca6ke_6gedcomNtB8_11SchemaErrorNtNtCsiy8hXAumaA3_6miette8protocol10Diagnostic6labelss1_0B8_
FNDA:0,_RNCNvXs1b_Cs94xiAUca6ke_6gedcomNtB8_11SchemaErrorNtNtCsiy8hXAumaA3_6miette8protocol10Diagnostic6labelss2_0B8_
FNDA:0,_RNCNvXs1b_Cs94xiAUca6ke_6gedcomNtB8_11SchemaErrorNtNtCsiy8hXAumaA3_6miette8protocol10Diagnostic6labelss3_0B8_
FNDA:0,_RNCNvXs1b_Cs94xiAUca6ke_6gedcomNtB8_11SchemaErrorNtNtCsiy8hXAumaA3_6miette8protocol10Diagnostic6labelss4_0B8_
FNDA:0,_RNCNvXs2_Cs94xiAUca6ke_6gedcomeNtB7_12GEDCOMSource5lines0B7_
FNDA:0,_RNCNvXs2_Cs94xiAUca6ke_6gedcomeNtB7_12GEDCOMSource5liness_0B7_
FNDA:0,_RNvMs5_Cs94xiAUca6ke_6gedcomINtB5_11ParseResultpNtNtCsalHcryTVEJB_4core7convert10InfallibleE10only_earlyB5_
FNDA:0,_RNvMs6_Cs94xiAUca6ke_6gedcomINtB5_11ParseResultNtNtCsalHcryTVEJB_4core7convert10InfalliblepE13only_completeB5_
FNDA:0,_RNvMs8_Cs94xiAUca6ke_6gedcomINtB5_9CollectorpE3newB5_
FNDA:0,_RNvXINICs94xiAUca6ke_6gedcoms9_0pEINtB5_9CollectorpEINtB5_4SinkpE7consumeB5_
FNDA:0,_RNvXINICs94xiAUca6ke_6gedcoms9_0pEINtB5_9CollectorpEINtB5_4SinkpE8completeB5_
FNDA:0,_RNvXINICs94xiAUca6ke_6gedcomsa_0pENtB5_8NullSinkINtB5_4SinkpE7consumeB5_
FNDA:0,_RNvXINICs94xiAUca6ke_6gedcomsa_0pENtB5_8NullSinkINtB5_4SinkpE8completeB5_
FNDA:0,_RNvMsb_Cs94xiAUca6ke_6gedcomINtB5_7CounterpE3newB5_
FNDA:0,_RNvXINICs94xiAUca6ke_6gedcomsc_0ppEINtB5_7CounterpEINtB5_4SinkpE7consumeB5_
FNDA:0,_RNvXINICs94xiAUca6ke_6gedcomsc_0ppEINtB5_7CounterpEINtB5_4SinkpE8completeB5_
FNDA:0,_RNvMsd_Cs94xiAUca6ke_6gedcomINtB5_7SourcedpE6as_refB5_
FNDA:0,_RINvMsd_Cs94xiAUca6ke_6gedcomINtB6_7SourcedpE3mapppEB6_
FNDA:0,_RINvMsf_Cs94xiAUca6ke_6gedcomINtB6_9RawRecordpE12get_data_optpppEB6_
FNDA:0,_RNCINvMsf_Cs94xiAUca6ke_6gedcomINtB8_9RawRecordpE12get_data_optpppE0B8_
FNDA:0,_RINvMsf_Cs94xiAUca6ke_6gedcomINtB6_9RawRecordpE8get_datapppEB6_
FNDA:0,_RNCINvMsf_Cs94xiAUca6ke_6gedcomINtB8_9RawRecordpE8get_datapppE0B8_
FNDA:0,_RNvMsf_Cs94xiAUca6ke_6gedcomINtB5_9RawRecordpE17get_subrecord_optB5_
FNDA:0,_RNCNvMsf_Cs94xiAUca6ke_6gedcomINtB7_9RawRecordpE17get_subrecord_opt0B7_
FNDA:0,_RNvMsf_Cs94xiAUca6ke_6gedcomINtB5_9RawRecordpE13get_subrecordB5_
FNDA:0,_RNCNvMsf_Cs94xiAUca6ke_6gedcomINtB7_9RawRecordpE13get_subrecord0B7_
FNDA:0,_RNvMsf_Cs94xiAUca6ke_6gedcomINtB5_9RawRecordpE18get_subrecords_optB5_
FNDA:0,_RNCNvMsf_Cs94xiAUca6ke_6gedcomINtB7_9RawRecordpE18get_subrecords_opt0B7_
FNDA:0,_RNvMsf_Cs94xiAUca6ke_6gedcomINtB5_9RawRecordpE14get_subrecordsB5_
FNDA:0,_RNCNvMsf_Cs94xiAUca6ke_6gedcomINtB7_9RawRecordpE14get_subrecords0B7_
FNDA:0,_RNCNvMsf_Cs94xiAUca6ke_6gedcomINtB7_9RawRecordpE14get_subrecordss_0B7_
FNDA:0,_RNvMsg_Cs94xiAUca6ke_6gedcomINtB5_7SourcedINtB5_9RawRecordpEE13get_subrecordB5_
FNDA:0,_RNvMsg_Cs94xiAUca6ke_6gedcomINtB5_7SourcedINtB5_9RawRecordpEE14get_subrecordsB5_
FNDA:0,_RINvCs94xiAUca6ke_6gedcom10build_treepEB2_
FNDA:0,_RNvMNvCs94xiAUca6ke_6gedcom10build_treeINtB2_1IpE9pop_levelB4_
FNDA:0,_RNvMNvCs94xiAUca6ke_6gedcom10build_treeINtB2_1IpE7consumeB4_
FNDA:0,_RNvXININvCs94xiAUca6ke_6gedcom10build_trees_0pEINtB5_1IpENtNtNtNtCsalHcryTVEJB_4core4iter6traits8iterator8Iterator4nextB7_
FNDA:0,_RNvMsh_Cs94xiAUca6ke_6gedcomINtB5_9RawRecordpE3newB5_
FNDA:0,_RNvMsi_Cs94xiAUca6ke_6gedcomINtB5_17RecordTreeBuilderpppE3newB5_
FNDA:0,_RNvMsi_Cs94xiAUca6ke_6gedcomINtB5_17RecordTreeBuilderpppE9pop_childB5_
FNDA:0,_RNvMsi_Cs94xiAUca6ke_6gedcomINtB5_17RecordTreeBuilderpppE9pop_belowB5_
FNDA:0,_RNvXINICs94xiAUca6ke_6gedcomsj_0pppEINtB5_17RecordTreeBuilderpppEINtB5_4SinkTINtB5_7SourcedjEIB1e_INtB5_7RawLinepEEEE7consumeB5_
FNDA:0,_RNvXINICs94xiAUca6ke_6gedcomsj_0pppEINtB5_17RecordTreeBuilderpppEINtB5_4SinkTINtB5_7SourcedjEIB1e_INtB5_7RawLinepEEEE8completeB5_
FNDA:0,_RNvMsk_Cs94xiAUca6ke_6gedcomNtB5_16FileFormatParser3new
FNF:99
FNH:55
DA:17,0
DA:32,0
DA:42,0
DA:43,0
DA:47,12
DA:91,4
DA:160,19
DA:161,19
DA:162,3
DA:163,7
DA:164,5
DA:165,2
DA:166,2
DA:169,19
DA:170,19
DA:180,37
DA:182,37
DA:183,4
DA:184,33
DA:187,37
DA:188,37
DA:189,37
DA:190,22
DA:191,22
DA:192,22
DA:193,1
DA:194,1
DA:195,1
DA:196,1
DA:197,1
DA:198,1
DA:199,1
DA:200,22
DA:201,21
DA:202,21
DA:204,8
DA:205,3
DA:206,3
DA:207,3
DA:208,3
DA:209,8
DA:211,3
DA:212,3
DA:213,2
DA:214,2
DA:215,2
DA:216,2
DA:217,2
DA:218,2
DA:219,2
DA:220,3
DA:221,1
DA:223,2
DA:224,2
DA:225,0
DA:226,0
DA:227,0
DA:228,0
DA:229,0
DA:230,0
DA:232,2
DA:236,2
DA:237,2
DA:238,0
DA:239,0
DA:240,0
DA:241,0
DA:242,0
DA:243,0
DA:245,2
DA:249,37
DA:252,3
DA:265,3
DA:266,3
DA:267,1
DA:268,1
DA:269,1
DA:271,3
DA:274,8
DA:275,8
DA:277,0
DA:278,8
DA:279,8
DA:280,8
DA:281,8
DA:282,8
DA:283,8
DA:286,6203
DA:287,6203
DA:288,6203
DA:289,6203
DA:290,6201
DA:291,6033
DA:292,6033
DA:293,6033
DA:294,6033
DA:295,6033
DA:296,2
DA:298,6203
DA:299,6203
DA:300,6203
DA:301,6203
DA:304,6203
DA:305,6037
DA:306,208
DA:307,211
DA:308,210
DA:309,208
DA:310,208
DA:311,208
DA:312,208
DA:313,208
DA:314,208
DA:315,208
DA:316,208
DA:317,208
DA:318,208
DA:319,208
DA:320,208
DA:321,208
DA:322,208
DA:323,208
DA:324,208
DA:325,208
DA:326,208
DA:327,208
DA:328,208
DA:329,208
DA:330,208
DA:331,208
DA:332,208
DA:333,208
DA:334,208
DA:335,0
DA:338,6037
DA:339,1
DA:340,1
DA:341,1
DA:342,6036
DA:343,6036
DA:344,6036
DA:346,166
DA:349,4
DA:350,4
DA:351,4
DA:352,4
DA:353,4
DA:354,4
DA:355,4
DA:356,4
DA:357,4
DA:358,4
DA:359,4
DA:360,4
DA:361,4
DA:362,4
DA:364,4
DA:365,4
DA:366,4
DA:367,4
DA:368,4
DA:369,4
DA:370,4
DA:371,4
DA:372,4
DA:373,4
DA:374,4
DA:375,4
DA:376,4
DA:378,4
DA:379,4
DA:380,5
DA:381,12
DA:382,4
DA:383,4
DA:384,4
DA:386,4
DA:387,4
DA:388,4
DA:389,4
DA:390,4
DA:391,0
DA:393,1
DA:394,1
DA:395,1
DA:396,1
DA:397,1
DA:401,165
DA:403,165
DA:404,0
DA:405,165
DA:408,6201
DA:409,6
DA:410,6
DA:411,6
DA:412,6
DA:413,1
DA:414,1
DA:415,1
DA:416,1
DA:417,0
DA:419,5
DA:420,1
DA:421,1
DA:422,1
DA:423,1
DA:424,4
DA:426,5
DA:429,5
DA:431,6195
DA:436,8
DA:438,30
DA:469,28
DA:508,54
DA:509,54
DA:510,54
DA:511,4
DA:512,4
DA:513,4
DA:514,4
DA:515,50
DA:516,2
DA:517,2
DA:518,2
DA:519,2
DA:520,48
DA:521,2
DA:522,2
DA:523,2
DA:524,2
DA:528,46
DA:529,2
DA:530,2
DA:531,2
DA:532,2
DA:533,44
DA:534,2
DA:535,2
DA:536,2
DA:537,2
DA:538,42
DA:541,40
DA:542,21
DA:543,5
DA:544,12
DA:545,2
DA:548,2
DA:551,19
DA:552,19
DA:553,19
DA:554,19
DA:555,19
DA:556,11
DA:558,8
DA:563,2
DA:565,54
DA:567,40
DA:568,40
DA:569,40
DA:570,40
DA:571,40
DA:572,40
DA:573,40
DA:574,40
DA:575,40
DA:576,40
DA:577,40
DA:578,40
DA:579,194
DA:580,126
DA:581,38
DA:582,29
DA:583,29
DA:584,140
DA:585,135
DA:586,23
DA:587,23
DA:588,21
DA:589,21
DA:590,21
DA:591,21
DA:593,13
DA:594,4
DA:595,4
DA:596,4
DA:598,0
DA:599,0
DA:600,0
DA:601,0
DA:602,4
DA:604,9
DA:605,126
DA:606,112
DA:610,17
DA:611,40
DA:624,15531
DA:625,15531
DA:626,15531
DA:628,31
DA:629,31
DA:630,309979
DA:631,15531
DA:632,0
DA:633,0
DA:635,15531
DA:636,15531
DA:637,31
DA:639,47224
DA:640,47224
DA:641,47224
DA:642,47224
DA:643,47224
DA:644,47224
DA:646,9931
DA:647,9931
DA:648,9931
DA:650,31335
DA:651,31335
DA:652,31335
DA:654,15531
DA:655,15531
DA:656,15531
DA:658,8579
DA:659,8579
DA:660,8579
DA:664,2603
DA:665,15314
DA:666,2603
DA:668,41
DA:669,41
DA:670,37021
DA:671,2603
DA:672,0
DA:673,0
DA:675,2603
DA:676,2603
DA:677,41
DA:679,6410
DA:680,6410
DA:681,6410
DA:682,6410
DA:683,6410
DA:684,6410
DA:686,1351
DA:687,1351
DA:688,1351
DA:690,5222
DA:691,5222
DA:692,5222
DA:694,2603
DA:695,2603
DA:696,2603
DA:698,1170
DA:699,1170
DA:700,1170
DA:709,0
DA:710,0
DA:711,0
DA:712,0
DA:713,0
DA:714,0
DA:722,38
DA:723,38
DA:724,38
DA:725,38
DA:726,38
DA:727,38
DA:728,38
DA:729,38
DA:730,38
DA:731,18
DA:732,18
DA:733,0
DA:734,0
DA:735,0
DA:737,0
DA:740,0
DA:741,0
DA:742,0
DA:744,0
DA:748,1
DA:751,1
DA:752,0
DA:753,0
DA:754,0
DA:755,0
DA:757,6
DA:758,6
DA:759,6
DA:760,6
DA:761,6
DA:762,6
DA:764,0
DA:765,0
DA:767,13
DA:768,13
DA:769,13
DA:770,13
DA:771,13
DA:772,13
DA:774,0
DA:776,0
DA:777,1
DA:779,37
DA:780,22
DA:781,9
DA:782,9
DA:783,9
DA:786,38
DA:798,72
DA:799,72
DA:800,72
DA:801,10037
DA:802,10037
DA:803,10037
DA:804,10037
DA:806,18134
DA:807,18134
DA:808,18134
DA:810,18134
DA:811,18134
DA:812,0
DA:815,18134
DA:816,6849
DA:817,11285
DA:818,11285
DA:819,11285
DA:820,11285
DA:821,11285
DA:822,11285
DA:823,0
DA:824,0
DA:825,0
DA:826,11285
DA:827,11285
DA:829,11284
DA:830,11285
DA:831,11285
DA:832,11285
DA:833,1
DA:834,1
DA:835,1
DA:836,11285
DA:838,11284
DA:839,11284
DA:840,11284
DA:841,11284
DA:842,11284
DA:843,11284
DA:844,11284
DA:845,11284
DA:847,11284
DA:848,289
DA:849,289
DA:850,289
DA:851,1
DA:852,1
DA:853,1
DA:854,1
DA:855,288
DA:856,10995
DA:858,11283
DA:860,11283
DA:861,4
DA:862,11283
DA:865,11279
DA:866,0
DA:867,0
DA:868,0
DA:869,0
DA:870,11279
DA:872,44827
DA:873,44827
DA:874,43
DA:876,44784
DA:878,44827
DA:879,0
DA:880,0
DA:881,0
DA:882,11279
DA:883,11279
DA:884,11279
DA:885,11279
DA:886,11279
DA:887,11279
DA:888,11279
DA:889,11279
DA:890,9749
DA:891,9749
DA:892,9749
DA:893,9749
DA:894,9749
DA:895,9749
DA:896,11279
DA:897,11279
DA:898,11279
DA:899,11279
DA:900,11279
DA:901,11279
DA:902,11279
DA:903,11279
DA:904,11279
DA:905,11285
DA:906,11285
DA:907,11285
DA:908,18134
DA:909,72
DA:918,0
DA:919,0
DA:920,0
DA:921,0
DA:923,0
DA:927,0
DA:928,0
DA:929,0
DA:930,0
DA:931,0
DA:932,0
DA:943,0
DA:944,0
DA:945,0
DA:947,0
DA:949,0
DA:966,0
DA:967,0
DA:968,0
DA:976,0
DA:977,0
DA:978,0
DA:979,0
DA:981,0
DA:982,0
DA:983,0
DA:993,0
DA:994,0
DA:995,0
DA:997,0
DA:998,0
DA:999,0
DA:1008,0
DA:1009,0
DA:1010,0
DA:1021,0
DA:1022,0
DA:1024,0
DA:1025,0
DA:1027,0
DA:1030,0
DA:1031,0
DA:1033,0
DA:1034,0
DA:1035,0
DA:1036,0
DA:1046,0
DA:1047,0
DA:1048,0
DA:1049,0
DA:1050,0
DA:1051,0
DA:1052,0
DA:1053,0
DA:1054,0
DA:1055,0
DA:1056,0
DA:1057,0
DA:1062,39919
DA:1063,39919
DA:1064,39919
DA:1077,0
DA:1078,0
DA:1079,0
DA:1080,0
DA:1081,0
DA:1082,0
DA:1083,0
DA:1084,0
DA:1085,0
DA:1086,0
DA:1087,0
DA:1088,0
DA:1089,0
DA:1091,0
DA:1092,0
DA:1093,0
DA:1094,0
DA:1096,0
DA:1098,0
DA:1100,0
DA:1101,0
DA:1102,0
DA:1103,0
DA:1104,0
DA:1105,0
DA:1106,0
DA:1107,0
DA:1108,0
DA:1109,0
DA:1110,0
DA:1111,0
DA:1113,0
DA:1114,0
DA:1115,0
DA:1116,0
DA:1117,0
DA:1119,0
DA:1120,0
DA:1121,0
DA:1122,0
DA:1123,0
DA:1124,0
DA:1125,0
DA:1126,0
DA:1127,0
DA:1128,0
DA:1129,0
DA:1130,0
DA:1131,0
DA:1132,0
DA:1133,0
DA:1134,0
DA:1135,0
DA:1136,0
DA:1137,0
DA:1139,0
DA:1140,0
DA:1141,0
DA:1142,0
DA:1143,0
DA:1144,0
DA:1145,0
DA:1146,0
DA:1147,0
DA:1148,0
DA:1149,0
DA:1151,0
DA:1152,0
DA:1153,0
DA:1154,0
DA:1155,0
DA:1156,0
DA:1157,0
DA:1158,0
DA:1159,0
DA:1160,0
DA:1161,0
DA:1162,0
DA:1163,0
DA:1164,0
DA:1165,0
DA:1166,0
DA:1167,0
DA:1168,0
DA:1169,0
DA:1170,0
DA:1171,0
DA:1175,0
DA:1176,0
DA:1177,0
DA:1178,0
DA:1179,0
DA:1180,0
DA:1181,0
DA:1182,0
DA:1183,0
DA:1184,0
DA:1185,0
DA:1186,0
DA:1187,0
DA:1188,0
DA:1189,0
DA:1190,0
DA:1192,0
DA:1193,0
DA:1194,0
DA:1195,0
DA:1196,0
DA:1197,0
DA:1198,0
DA:1199,0
DA:1200,0
DA:1201,0
DA:1202,0
DA:1203,0
DA:1204,0
DA:1207,27
DA:1208,27
DA:1209,27
DA:1210,27
DA:1211,27
DA:1212,27
DA:1213,27
DA:1214,27
DA:1215,27
DA:1216,9978
DA:1217,19586
DA:1218,9925
DA:1219,27
DA:1220,9925
DA:1221,27
DA:1222,27
DA:1223,2470
DA:1224,2470
DA:1225,2470
DA:1226,27
DA:1227,27
DA:1228,7455
DA:1229,27
DA:1230,27
DA:1231,9925
DA:1232,9925
DA:1233,9925
DA:1234,27
DA:1235,317
DA:1236,317
DA:1237,27
DA:1238,9608
DA:1239,9608
DA:1240,9608
DA:1241,27
DA:1242,27
DA:1243,27
DA:1244,9661
DA:1245,9978
DA:1246,27
DA:1247,9928
DA:1248,9928
DA:1249,9928
DA:1250,9928
DA:1251,9928
DA:1252,9928
DA:1253,9928
DA:1254,9928
DA:1255,27
DA:1256,2
DA:1257,2
DA:1258,2
DA:1259,2
DA:1260,9926
DA:1261,9926
DA:1262,9926
DA:1263,9926
DA:1264,9926
DA:1265,9928
DA:1266,27
DA:1267,27
DA:1268,27
DA:1269,27
DA:1270,27
DA:1271,27
DA:1272,27
DA:1273,27
DA:1274,344
DA:1275,9978
DA:1276,9928
DA:1277,294
DA:1278,9634
DA:1279,27
DA:1280,27
DA:1281,27
DA:1282,50
DA:1283,344
DA:1284,27
DA:1285,27
DA:1286,27
DA:1287,27
DA:1288,27
DA:1289,27
DA:1290,27
DA:1305,9926
DA:1306,9926
DA:1307,9926
DA:1308,9926
DA:1309,9926
DA:1310,9926
DA:1318,0
DA:1319,0
DA:1320,0
DA:1321,0
DA:1322,0
DA:1323,0
DA:1324,0
DA:1326,0
DA:1327,0
DA:1329,0
DA:1332,0
DA:1333,0
DA:1334,0
DA:1337,0
DA:1340,0
DA:1341,0
DA:1342,0
DA:1343,0
DA:1344,0
DA:1345,0
DA:1346,0
DA:1349,0
DA:1351,0
DA:1352,0
DA:1353,0
DA:1354,0
DA:1355,0
DA:1359,0
DA:1360,0
DA:1373,0
DA:1374,0
DA:1375,0
DA:1376,0
DA:1377,0
DA:1379,0
DA:1380,0
DA:1381,0
DA:1382,0
DA:1384,0
DA:1385,0
DA:1386,0
DA:1387,0
DA:1388,0
DA:1389,0
DA:1391,0
DA:1393,0
DA:1394,0
DA:1395,0
DA:1396,0
DA:1397,0
DA:1402,1
DA:1403,1
DA:1404,1159
DA:1406,1159
DA:1407,1159
DA:1409,0
DA:1410,1159
DA:1411,1
DA:1412,1
DA:1413,1
DA:1415,0
DA:1417,1
DA:1581,0
DA:1582,0
DA:1583,0
DA:1584,0
DA:1585,0
DA:1586,0
DA:1587,0
DA:1588,0
DA:1589,0
DA:1590,0
DA:1591,0
DA:1594,0
BRF:0
BRH:0
LF:943
LH:625
end_of_record
SF:C:\Users\porge\OneDrive\Documents\mdf\gedcom\src\v7\mod.rs
FN:154,_RNvXNtCscmLdlanZRvV_6gedcom2v7NtB2_11StandardTagINtNtCsalHcryTVEJB_4core7convert7TryFromReE8try_from
FN:154,_RNvXNtCs94xiAUca6ke_6gedcom2v7NtB2_11StandardTagINtNtCsalHcryTVEJB_4core7convert7TryFromReE8try_from
FNDA:0,_RNvXNtCscmLdlanZRvV_6gedcom2v7NtB2_11StandardTagINtNtCsalHcryTVEJB_4core7convert7TryFromReE8try_from
FNDA:0,_RNvXNtCs94xiAUca6ke_6gedcom2v7NtB2_11StandardTagINtNtCsalHcryTVEJB_4core7convert7TryFromReE8try_from
FNF:1
FNH:0
DA:154,0
DA:155,0
DA:156,0
DA:157,0
DA:158,0
DA:159,0
DA:160,0
DA:161,0
DA:162,0
DA:163,0
DA:164,0
DA:165,0
DA:166,0
DA:167,0
DA:168,0
DA:169,0
DA:170,0
DA:171,0
DA:172,0
DA:173,0
DA:174,0
DA:175,0
DA:176,0
DA:177,0
DA:178,0
DA:179,0
DA:180,0
DA:181,0
DA:182,0
DA:183,0
DA:184,0
DA:185,0
DA:186,0
DA:187,0
DA:188,0
DA:189,0
DA:190,0
DA:191,0
DA:192,0
DA:195,0
DA:196,0
BRF:0
BRH:0
LF:41
LH:0
end_of_record
SF:C:\Users\porge\OneDrive\Documents\mdf\gedcom\src\versions.rs
FN:12,_RNvXNtCscmLdlanZRvV_6gedcom8versionsNtB2_13GEDCOMVersionNtNtCsalHcryTVEJB_4core3fmt7Display3fmt
FN:20,_RNvXs6_NtCscmLdlanZRvV_6gedcom8versionsNtB5_25InvalidGEDCOMVersionErrorNtNtCsalHcryTVEJB_4core3fmt7Display3fmt
FN:24,_RNvNtCscmLdlanZRvV_6gedcom8versions24parse_gedcom_version_raw
FN:12,_RNvXNtCs94xiAUca6ke_6gedcom8versionsNtB2_13GEDCOMVersionNtNtCsalHcryTVEJB_4core3fmt7Display3fmt
FN:24,_RNvNtCs94xiAUca6ke_6gedcom8versions24parse_gedcom_version_raw
FN:20,_RNvXs6_NtCs94xiAUca6ke_6gedcom8versionsNtB5_25InvalidGEDCOMVersionErrorNtNtCsalHcryTVEJB_4core3fmt7Display3fmt
FNDA:0,_RNvXNtCscmLdlanZRvV_6gedcom8versionsNtB2_13GEDCOMVersionNtNtCsalHcryTVEJB_4core3fmt7Display3fmt
FNDA:0,_RNvXs6_NtCscmLdlanZRvV_6gedcom8versionsNtB5_25InvalidGEDCOMVersionErrorNtNtCsalHcryTVEJB_4core3fmt7Display3fmt
FNDA:0,_RNvNtCscmLdlanZRvV_6gedcom8versions24parse_gedcom_version_raw
FNDA:0,_RNvXNtCs94xiAUca6ke_6gedcom8versionsNtB2_13GEDCOMVersionNtNtCsalHcryTVEJB_4core3fmt7Display3fmt
FNDA:4,_RNvNtCs94xiAUca6ke_6gedcom8versions24parse_gedcom_version_raw
FNDA:0,_RNvXs6_NtCs94xiAUca6ke_6gedcom8versionsNtB5_25InvalidGEDCOMVersionErrorNtNtCsalHcryTVEJB_4core3fmt7Display3fmt
FNF:3
FNH:1
DA:12,0
DA:13,0
DA:14,0
DA:15,0
DA:17,0
DA:20,0
DA:24,4
DA:25,4
DA:26,4
DA:27,4
DA:28,0
DA:29,0
DA:31,4
BRF:0
BRH:0
LF:13
LH:5
end_of_record
SF:C:\Users\porge\OneDrive\Documents\mdf\mdf\src\main.rs
FN:19,_RNCNvXs6_CsdnCAKUon5lZ_3mdfNtB7_14GedcomCommandsNtNtCsclq4KTlMCjd_12clap_builder6derive14FromArgMatches20from_arg_matches_mut0B7_
FN:19,_RNCNvXs6_CsdnCAKUon5lZ_3mdfNtB7_14GedcomCommandsNtNtCsclq4KTlMCjd_12clap_builder6derive14FromArgMatches27update_from_arg_matches_mut0B7_
FN:22,_RNvCsdnCAKUon5lZ_3mdf4main
FN:25,_RNCNvCsdnCAKUon5lZ_3mdf4main0B3_
FN:41,_RNCNvCsdnCAKUon5lZ_3mdf4mains_0B3_
FN:44,_RNCNvCsdnCAKUon5lZ_3mdf4mains0_0B3_
FN:45,_RNCNvCsdnCAKUon5lZ_3mdf4mains1_0B3_
FNDA:0,_RNCNvXs6_CsdnCAKUon5lZ_3mdfNtB7_14GedcomCommandsNtNtCsclq4KTlMCjd_12clap_builder6derive14FromArgMatches20from_arg_matches_mut0B7_
FNDA:0,_RNCNvXs6_CsdnCAKUon5lZ_3mdfNtB7_14GedcomCommandsNtNtCsclq4KTlMCjd_12clap_builder6derive14FromArgMatches27update_from_arg_matches_mut0B7_
FNDA:0,_RNvCsdnCAKUon5lZ_3mdf4main
FNDA:0,_RNCNvCsdnCAKUon5lZ_3mdf4main0B3_
FNDA:0,_RNCNvCsdnCAKUon5lZ_3mdf4mains_0B3_
FNDA:0,_RNCNvCsdnCAKUon5lZ_3mdf4mains0_0B3_
FNDA:0,_RNCNvCsdnCAKUon5lZ_3mdf4mains1_0B3_
FNF:6
FNH:0
DA:19,0
DA:22,0
DA:23,0
DA:24,0
DA:25,0
DA:26,0
DA:27,0
DA:28,0
DA:29,0
DA:30,0
DA:31,0
DA:33,0
DA:34,0
DA:35,0
DA:36,0
DA:37,0
DA:39,0
DA:40,0
DA:41,0
DA:43,0
DA:44,0
DA:45,0
DA:46,0
DA:47,0
DA:48,0
DA:49,0
DA:51,0
DA:52,0
DA:53,0
DA:55,0
DA:56,0
DA:57,0
DA:60,0
DA:64,0
BRF:0
BRH:0
LF:40
LH:0
end_of_record